(dp0
S'2011-08-22'
p1
(lp2
I0
aI0
aI0
aF76.5
aF2.019999999999996
aF4434200.0
aF602800.0
aF602800.0
aF0.6299999999999955
aF0.6299999999999955
asS'2006-07-26'
p3
(lp4
I0
aI0
aI0
aF67.35
aF2.480000000000004
aF9168600.0
aF602800.0
aF602800.0
aF0.6299999999999955
aF0.6299999999999955
asS'1994-03-28'
p5
(lp6
I0
aI0
aI0
aF99.25
aF1.3700000000000045
aF1912400.0
aF602800.0
aF602800.0
aF0.6299999999999955
aF0.6299999999999955
asS'1994-03-29'
p7
(lp8
I0
aI0
aI0
aF98.25
aF1.75
aF2790800.0
aF602800.0
aF602800.0
aF0.6299999999999955
aF0.6299999999999955
asS'1994-03-24'
p9
(lp10
I0
aI0
aI0
aF100.0
aF1.3700000000000045
aF1977200.0
aF602800.0
aF602800.0
aF0.6299999999999955
aF0.6299999999999955
asS'1994-03-25'
p11
(lp12
I0
aI0
aI0
aF99.87
aF0.75
aF1038400.0
aF602800.0
aF602800.0
aF0.6299999999999955
aF0.6299999999999955
asS'1994-03-22'
p13
(lp14
I0
aI0
aI0
aF101.0
aF1.25
aF1496400.0
aF602800.0
aF602800.0
aF0.6299999999999955
aF0.6299999999999955
asS'1994-03-23'
p15
(lp16
I0
aI0
aI0
aF101.0
aF0.6200000000000045
aF1268000.0
aF602800.0
aF602800.0
aF0.6299999999999955
aF0.6299999999999955
asS'1994-03-21'
p17
(lp18
I0
aI0
aI0
aF101.25
aF1.6200000000000045
aF1672800.0
aF602800.0
aF602800.0
aF0.6299999999999955
aF0.6299999999999955
asS'2008-10-09'
p19
(lp20
I0
aI0
aI0
aF53.38
aF5.189999999999998
aF11647700.0
aF602800.0
aF602800.0
aF0.6299999999999955
aF0.6299999999999955
asS'2008-10-08'
p21
(lp22
I0
aI0
aI0
aF57.24
aF4.699999999999996
aF13349200.0
aF602800.0
aF602800.0
aF0.6299999999999955
aF0.6299999999999955
asS'2008-10-03'
p23
(lp24
I0
aI0
aI0
aF64.51
aF2.739999999999995
aF6588000.0
aF602800.0
aF602800.0
aF0.6299999999999955
aF0.6299999999999955
asS'2008-10-07'
p25
(lp26
I0
aI0
aI0
aF59.87
aF4.630000000000003
aF8798100.0
aF602800.0
aF602800.0
aF0.6299999999999955
aF0.6299999999999955
asS'1998-08-31'
p27
(lp28
I0
aI0
aI0
aF68.0
aF5.6200000000000045
aF2380600.0
aF602800.0
aF602800.0
aF0.6299999999999955
aF0.6299999999999955
asS'1994-04-19'
p29
(lp30
I0
aI0
aI0
aF47.75
aF1.3800000000000026
aF1827200.0
aF602800.0
aF602800.0
aF0.6299999999999955
aF0.6299999999999955
asS'2006-07-25'
p31
(lp32
I0
aI0
aI0
aF67.05
aF3.960000000000008
aF18859900.0
aF602800.0
aF602800.0
aF0.6299999999999955
aF0.6299999999999955
asS'2009-02-23'
p33
(lp34
I0
aI0
aI0
aF45.36
aF2.230000000000004
aF6776500.0
aF602800.0
aF602800.0
aF0.6299999999999955
aF0.6299999999999955
asS'2009-02-20'
p35
(lp36
I0
aI0
aI0
aF46.44
aF1.490000000000002
aF8729300.0
aF602800.0
aF602800.0
aF0.6299999999999955
aF0.6299999999999955
asS'2009-02-27'
p37
(lp38
I0
aI0
aI0
aF45.17
aF1.1999999999999957
aF6911300.0
aF602800.0
aF602800.0
aF0.6299999999999955
aF0.6299999999999955
asS'2009-02-24'
p39
(lp40
I0
aI0
aI0
aF45.35
aF2.269999999999996
aF8260400.0
aF602800.0
aF602800.0
aF0.6299999999999955
aF0.6299999999999955
asS'2011-09-30'
p41
(lp42
I0
aI0
aI0
aF71.71
aF2.230000000000004
aF7184500.0
aF602800.0
aF602800.0
aF0.6299999999999955
aF0.6299999999999955
asS'2011-09-23'
p43
(lp44
I0
aI0
aI0
aF72.34
aF1.9899999999999949
aF4583800.0
aF602800.0
aF602800.0
aF0.6299999999999955
aF0.6299999999999955
asS'2011-09-22'
p45
(lp46
I0
aI0
aI0
aF72.0
aF2.9000000000000057
aF10108500.0
aF602800.0
aF602800.0
aF0.6299999999999955
aF0.6299999999999955
asS'1994-03-30'
p47
(lp48
I0
aI0
aI0
aF99.0
aF1.5
aF2881600.0
aF602800.0
aF602800.0
aF0.6299999999999955
aF0.6299999999999955
asS'1994-04-12'
p49
(lp50
I0
aI0
aI0
aF51.0
aF1.0
aF1253800.0
aF602800.0
aF602800.0
aF0.6299999999999955
aF0.6299999999999955
asS'1994-04-13'
p51
(lp52
I0
aI0
aI0
aF50.13
aF1.0
aF1121000.0
aF602800.0
aF602800.0
aF0.6299999999999955
aF0.6299999999999955
asS'1994-04-11'
p53
(lp54
I0
aI0
aI0
aF51.13
aF0.75
aF1514000.0
aF602800.0
aF602800.0
aF0.6299999999999955
aF0.6299999999999955
asS'1998-08-27'
p55
(lp56
I0
aI0
aI0
aF71.94
aF2.680000000000007
aF3485800.0
aF602800.0
aF602800.0
aF0.6299999999999955
aF0.6299999999999955
asS'1994-04-14'
p57
(lp58
I0
aI0
aI0
aF49.5
aF0.75
aF1294200.0
aF602800.0
aF602800.0
aF0.6299999999999955
aF0.6299999999999955
asS'1994-04-15'
p59
(lp60
I0
aI0
aI0
aF48.25
aF1.5
aF1938600.0
aF602800.0
aF602800.0
aF0.6299999999999955
aF0.6299999999999955
asS'1994-04-18'
p61
(lp62
I0
aI0
aI0
aF47.38
aF1.5
aF1197800.0
aF602800.0
aF602800.0
aF0.6299999999999955
aF0.6299999999999955
asS'1998-08-28'
p63
(lp64
I0
aI0
aI0
aF72.56
aF2.4399999999999977
aF2469600.0
aF602800.0
aF602800.0
aF0.6299999999999955
aF0.6299999999999955
asS'1998-07-13'
p65
(lp66
I0
aI0
aI0
aF79.5
aF1.0600000000000023
aF2446600.0
aF602800.0
aF602800.0
aF0.6299999999999955
aF0.6299999999999955
asS'1998-07-10'
p67
(lp68
I0
aI0
aI0
aF79.69
aF2.0600000000000023
aF2420600.0
aF602800.0
aF602800.0
aF0.6299999999999955
aF0.6299999999999955
asS'2011-09-12'
p69
(lp70
I0
aI0
aI0
aF76.0
aF2.280000000000001
aF5848900.0
aF602800.0
aF602800.0
aF0.6299999999999955
aF0.6299999999999955
asS'1994-04-04'
p71
(lp72
I0
aI0
aI0
aF97.75
aF1.0
aF2273200.0
aF602800.0
aF602800.0
aF0.6299999999999955
aF0.6299999999999955
asS'2008-07-16'
p73
(lp74
I0
aI0
aI0
aF67.28
aF1.3900000000000006
aF4636500.0
aF602800.0
aF602800.0
aF0.6299999999999955
aF0.6299999999999955
asS'1998-09-02'
p75
(lp76
I0
aI0
aI0
aF67.69
aF3.3100000000000023
aF4308400.0
aF602800.0
aF602800.0
aF0.6299999999999955
aF0.6299999999999955
asS'1998-09-01'
p77
(lp78
I0
aI0
aI0
aF65.62
aF2.8799999999999955
aF6328800.0
aF602800.0
aF602800.0
aF0.6299999999999955
aF0.6299999999999955
asS'2008-10-06'
p79
(lp80
I0
aI0
aI0
aF60.93
aF3.4499999999999957
aF10949000.0
aF602800.0
aF602800.0
aF0.6299999999999955
aF0.6299999999999955
asS'2011-09-09'
p81
(lp82
I0
aI0
aI0
aF76.0
aF2.180000000000007
aF7423400.0
aF602800.0
aF602800.0
aF0.6299999999999955
aF0.6299999999999955
asS'2008-07-02'
p83
(lp84
I0
aI0
aI0
aF68.48
aF1.7000000000000028
aF4661200.0
aF602800.0
aF602800.0
aF0.6299999999999955
aF0.6299999999999955
asS'2008-07-01'
p85
(lp86
I0
aI0
aI0
aF67.57
aF2.480000000000004
aF6353100.0
aF602800.0
aF602800.0
aF0.6299999999999955
aF0.6299999999999955
asS'2003-10-01'
p87
(lp88
I0
aI0
aI0
aF69.8
aF1.1500000000000057
aF4448900.0
aF602800.0
aF602800.0
aF0.6299999999999955
aF0.6299999999999955
asS'2008-01-23'
p89
(lp90
I0
aI0
aI0
aF72.05
aF4.180000000000007
aF7000800.0
aF602800.0
aF602800.0
aF0.6299999999999955
aF0.6299999999999955
asS'2008-01-22'
p91
(lp92
I0
aI0
aI0
aF72.07
aF3.5400000000000063
aF6573400.0
aF602800.0
aF602800.0
aF0.6299999999999955
aF0.6299999999999955
asS'2008-09-30'
p93
(lp94
I0
aI0
aI0
aF67.12
aF1.4799999999999898
aF7093900.0
aF602800.0
aF602800.0
aF0.6299999999999955
aF0.6299999999999955
asS'2011-08-09'
p95
(lp96
I0
aI0
aI0
aF78.06
aF4.799999999999997
aF12008400.0
aF602800.0
aF602800.0
aF0.6299999999999955
aF0.6299999999999955
asS'2005-06-30'
p97
(lp98
I0
aI0
aI0
aF72.25
aF2.299999999999997
aF14756900.0
aF602800.0
aF602800.0
aF0.6299999999999955
aF0.6299999999999955
asS'2005-07-01'
p99
(lp100
I0
aI0
aI0
aF71.03
aF2.0900000000000034
aF8866000.0
aF602800.0
aF602800.0
aF0.6299999999999955
aF0.6299999999999955
asS'2005-10-11'
p101
(lp102
I0
aI0
aI0
aF70.35
aF0.9500000000000028
aF2861300.0
aF602800.0
aF602800.0
aF0.6299999999999955
aF0.6299999999999955
asS'2005-10-13'
p103
(lp104
I0
aI0
aI0
aF69.71
aF1.1700000000000017
aF3405300.0
aF602800.0
aF602800.0
aF0.6299999999999955
aF0.6299999999999955
asS'2005-10-12'
p105
(lp106
I0
aI0
aI0
aF70.15
aF1.0999999999999943
aF3729600.0
aF602800.0
aF602800.0
aF0.6299999999999955
aF0.6299999999999955
asS'2005-10-14'
p107
(lp108
I0
aI0
aI0
aF70.08
aF0.7000000000000028
aF2565900.0
aF602800.0
aF602800.0
aF0.6299999999999955
aF0.6299999999999955
asS'1994-04-20'
p109
(lp110
I0
aI0
aI0
aF47.0
aF1.75
aF1406200.0
aF602800.0
aF602800.0
aF0.6299999999999955
aF0.6299999999999955
asS'1994-04-25'
p111
(lp112
I0
aI0
aI0
aF46.38
aF1.5
aF2240000.0
aF602800.0
aF602800.0
aF0.6299999999999955
aF0.6299999999999955
asS'2011-08-19'
p113
(lp114
I0
aI0
aI0
aF76.6
aF2.219999999999999
aF6151600.0
aF602800.0
aF602800.0
aF0.6299999999999955
aF0.6299999999999955
asS'2011-08-18'
p115
(lp116
I0
aI0
aI0
aF76.74
aF3.280000000000001
aF8546300.0
aF602800.0
aF602800.0
aF0.6299999999999955
aF0.6299999999999955
asS'2008-09-29'
p117
(lp118
I0
aI0
aI0
aF65.51
aF3.4200000000000017
aF8246900.0
aF602800.0
aF602800.0
aF0.6299999999999955
aF0.6299999999999955
asS'2011-08-10'
p119
(lp120
I0
aI0
aI0
aF78.01
aF3.2099999999999937
aF9377400.0
aF602800.0
aF602800.0
aF0.6299999999999955
aF0.6299999999999955
asS'2005-08-23'
p121
(lp122
I0
aI0
aI0
aF70.85
aF1.0700000000000074
aF3331300.0
aF602800.0
aF602800.0
aF0.6299999999999955
aF0.6299999999999955
asS'2005-08-24'
p123
(lp124
I0
aI0
aI0
aF70.44
aF1.1800000000000068
aF3735600.0
aF602800.0
aF602800.0
aF0.6299999999999955
aF0.6299999999999955
asS'2005-08-29'
p125
(lp126
I0
aI0
aI0
aF70.41
aF0.960000000000008
aF1881100.0
aF602800.0
aF602800.0
aF0.6299999999999955
aF0.6299999999999955
asS'2008-06-26'
p127
(lp128
I0
aI0
aI0
aF70.24
aF2.0600000000000023
aF7371800.0
aF602800.0
aF602800.0
aF0.6299999999999955
aF0.6299999999999955
asS'2008-06-27'
p129
(lp130
I0
aI0
aI0
aF68.89
aF1.5900000000000034
aF7481700.0
aF602800.0
aF602800.0
aF0.6299999999999955
aF0.6299999999999955
asS'2009-02-18'
p131
(lp132
I0
aI0
aI0
aF46.61
aF0.9699999999999989
aF4963800.0
aF602800.0
aF602800.0
aF0.6299999999999955
aF0.6299999999999955
asS'2009-02-19'
p133
(lp134
I0
aI0
aI0
aF46.58
aF1.4600000000000009
aF5554600.0
aF602800.0
aF602800.0
aF0.6299999999999955
aF0.6299999999999955
asS'2009-02-12'
p135
(lp136
I0
aI0
aI0
aF48.64
aF1.9200000000000017
aF8495400.0
aF602800.0
aF602800.0
aF0.6299999999999955
aF0.6299999999999955
asS'2009-02-13'
p137
(lp138
I0
aI0
aI0
aF49.25
aF1.3500000000000014
aF4810600.0
aF602800.0
aF602800.0
aF0.6299999999999955
aF0.6299999999999955
asS'2003-09-30'
p139
(lp140
I0
aI0
aI0
aF68.94
aF1.3299999999999983
aF5201200.0
aF602800.0
aF602800.0
aF0.6299999999999955
aF0.6299999999999955
asS'2009-02-17'
p141
(lp142
I0
aI0
aI0
aF47.2
aF1.7299999999999969
aF8653800.0
aF602800.0
aF602800.0
aF0.6299999999999955
aF0.6299999999999955
asS'2008-07-15'
p143
(lp144
I0
aI0
aI0
aF67.26
aF1.4099999999999966
aF8230000.0
aF602800.0
aF602800.0
aF0.6299999999999955
aF0.6299999999999955
asS'2011-10-03'
p145
(lp146
I0
aI0
aI0
aF70.93
aF2.309999999999988
aF7619300.0
aF602800.0
aF602800.0
aF0.6299999999999955
aF0.6299999999999955
asS'2011-10-04'
p147
(lp148
I0
aI0
aI0
aF68.63
aF3.5500000000000114
aF8700000.0
aF602800.0
aF602800.0
aF0.6299999999999955
aF0.6299999999999955
asS'1998-07-28'
p149
(lp150
I0
aI0
aI0
aF75.12
aF3.25
aF2492400.0
aF602800.0
aF602800.0
aF0.6299999999999955
aF0.6299999999999955
asS'1998-07-29'
p151
(lp152
I0
aI0
aI0
aF75.5
aF1.6200000000000045
aF2241800.0
aF602800.0
aF602800.0
aF0.6299999999999955
aF0.6299999999999955
asS'1998-07-27'
p153
(lp154
I0
aI0
aI0
aF75.87
aF2.5
aF2468200.0
aF602800.0
aF602800.0
aF0.6299999999999955
aF0.6299999999999955
asS'1998-07-24'
p155
(lp156
I0
aI0
aI0
aF77.0
aF1.6200000000000045
aF3684400.0
aF602800.0
aF602800.0
aF0.6299999999999955
aF0.6299999999999955
asS'1998-07-22'
p157
(lp158
I0
aI0
aI0
aF78.12
aF3.8799999999999955
aF4047400.0
aF602800.0
aF602800.0
aF0.6299999999999955
aF0.6299999999999955
asS'1998-07-23'
p159
(lp160
I0
aI0
aI0
aF78.12
aF3.5
aF2707000.0
aF602800.0
aF602800.0
aF0.6299999999999955
aF0.6299999999999955
asS'2008-06-30'
p161
(lp162
I0
aI0
aI0
aF68.61
aF1.0799999999999983
aF5333800.0
aF602800.0
aF602800.0
aF0.6299999999999955
aF0.6299999999999955
asS'1998-08-03'
p163
(lp164
I0
aI0
aI0
aF73.5
aF1.5600000000000023
aF3076200.0
aF602800.0
aF602800.0
aF0.6299999999999955
aF0.6299999999999955
asS'1998-08-04'
p165
(lp166
I0
aI0
aI0
aF73.62
aF2.6299999999999955
aF2714400.0
aF602800.0
aF602800.0
aF0.6299999999999955
aF0.6299999999999955
asS'2008-10-10'
p167
(lp168
I0
aI0
aI0
aF50.01
aF6.43
aF16317000.0
aF602800.0
aF602800.0
aF0.6299999999999955
aF0.6299999999999955
asS'1998-07-31'
p169
(lp170
I0
aI0
aI0
aF74.0
aF1.8700000000000045
aF2380200.0
aF602800.0
aF602800.0
aF0.6299999999999955
aF0.6299999999999955
asS'2009-03-09'
p171
(lp172
I0
aI0
aI0
aF41.2
aF1.25
aF7150100.0
aF602800.0
aF602800.0
aF0.6299999999999955
aF0.6299999999999955
asS'2009-03-06'
p173
(lp174
I0
aI0
aI0
aF40.87
aF2.4100000000000037
aF9174100.0
aF602800.0
aF602800.0
aF0.6299999999999955
aF0.6299999999999955
asS'2009-03-05'
p175
(lp176
I0
aI0
aI0
aF42.04
aF1.990000000000002
aF8217600.0
aF602800.0
aF602800.0
aF0.6299999999999955
aF0.6299999999999955
asS'2009-03-02'
p177
(lp178
I0
aI0
aI0
aF42.75
aF2.4299999999999997
aF8116600.0
aF602800.0
aF602800.0
aF0.6299999999999955
aF0.6299999999999955
asS'2009-03-03'
p179
(lp180
I0
aI0
aI0
aF42.7
aF1.279999999999994
aF9081400.0
aF602800.0
aF602800.0
aF0.6299999999999955
aF0.6299999999999955
as.