(dp0
S'2008-11-17'
p1
(lp2
I0
aI0
aI0
asS'2009-01-20'
p3
(lp4
I0
aI0
aI0
asS'2008-09-30'
p5
(lp6
I0
aI0
aI0
asS'2008-10-09'
p7
(lp8
I0
aI0
aI0
asS'2008-10-08'
p9
(lp10
I0
aI0
aI0
asS'2008-11-20'
p11
(lp12
I0
aI0
aI0
asS'2008-11-19'
p13
(lp14
I0
aI0
aI0
asS'2008-10-03'
p15
(lp16
I0
aI0
aI0
asS'2008-10-02'
p17
(lp18
I0
aI0
aI0
asS'2008-10-07'
p19
(lp20
I0
aI0
aI0
asS'2008-10-06'
p21
(lp22
I0
aI0
aI0
asS'2008-09-29'
p23
(lp24
I0
aI0
aI0
asS'2008-11-21'
p25
(lp26
I0
aI0
aI0
as.