(dp0
S'2008-11-17'
p1
(lp2
I0
aI0
aI0
aF87.26
aF3.289999999999992
aF41518800.0
aF13890000.0
aF13890000.0
asS'2009-01-20'
p3
(lp4
I0
aI0
aI0
aF78.2
aF3.799999999999997
aF32854100.0
aF13890000.0
aF13890000.0
asS'2008-09-30'
p5
(lp6
I0
aI0
aI0
aF106.3
aF8.700000000000003
aF58095800.0
aF13890000.0
aF13890000.0
asS'2008-10-09'
p7
(lp8
I0
aI0
aI0
aF86.6
aF9.200000000000003
aF57763700.0
aF13890000.0
aF13890000.0
asS'2008-10-08'
p9
(lp10
I0
aI0
aI0
aF85.68
aF10.649999999999991
aF78847900.0
aF13890000.0
aF13890000.0
asS'2008-11-20'
p11
(lp12
I0
aI0
aI0
aF80.0
aF6.450000000000003
aF61314800.0
aF13890000.0
aF13890000.0
asS'2008-11-19'
p13
(lp14
I0
aI0
aI0
aF86.21
aF5.3700000000000045
aF41853600.0
aF13890000.0
aF13890000.0
asS'2008-10-03'
p15
(lp16
I0
aI0
aI0
aF94.65
aF11.849999999999994
aF81942800.0
aF13890000.0
aF13890000.0
asS'2008-10-02'
p17
(lp18
I0
aI0
aI0
aF100.0
aF8.790000000000006
aF57477300.0
aF13890000.0
aF13890000.0
asS'2008-10-07'
p19
(lp20
I0
aI0
aI0
aF88.95
aF12.549999999999997
aF67099000.0
aF13890000.0
aF13890000.0
asS'2008-10-06'
p21
(lp22
I0
aI0
aI0
aF87.54
aF11.239999999999995
aF75264900.0
aF13890000.0
aF13890000.0
asS'2008-09-29'
p23
(lp24
I0
aI0
aI0
aF100.59
aF19.090000000000003
aF93644900.0
aF13890000.0
aF13890000.0
asS'2008-11-21'
p25
(lp26
I0
aI0
aI0
aF79.14
aF4.980000000000004
aF56045400.0
aF13890000.0
aF13890000.0
as.