(lp0
S'2004-08-19'
p1
aS'2004-08-20'
p2
aS'2004-08-23'
p3
aS'2004-08-24'
p4
aS'2004-08-25'
p5
aS'2004-08-26'
p6
aS'2004-08-27'
p7
aS'2004-08-30'
p8
aS'2004-08-31'
p9
aS'2004-09-01'
p10
aS'2004-09-02'
p11
aS'2004-09-03'
p12
aS'2004-09-07'
p13
aS'2004-09-08'
p14
aS'2004-09-09'
p15
aS'2004-09-10'
p16
aS'2004-09-13'
p17
aS'2004-09-14'
p18
aS'2004-09-15'
p19
aS'2004-09-16'
p20
aS'2004-09-17'
p21
aS'2004-09-20'
p22
aS'2004-09-21'
p23
aS'2004-09-22'
p24
aS'2004-09-23'
p25
aS'2004-09-24'
p26
aS'2004-09-27'
p27
aS'2004-09-28'
p28
aS'2004-09-29'
p29
aS'2004-09-30'
p30
aS'2004-10-01'
p31
aS'2004-10-04'
p32
aS'2004-10-05'
p33
aS'2004-10-06'
p34
aS'2004-10-07'
p35
aS'2004-10-08'
p36
aS'2004-10-11'
p37
aS'2004-10-12'
p38
aS'2004-10-13'
p39
aS'2004-10-14'
p40
aS'2004-10-15'
p41
aS'2004-10-18'
p42
aS'2004-10-19'
p43
aS'2004-10-20'
p44
aS'2004-10-21'
p45
aS'2004-10-22'
p46
aS'2004-10-25'
p47
aS'2004-10-26'
p48
aS'2004-10-27'
p49
aS'2004-10-28'
p50
aS'2004-10-29'
p51
aS'2004-11-01'
p52
aS'2004-11-02'
p53
aS'2004-11-03'
p54
aS'2004-11-04'
p55
aS'2004-11-05'
p56
aS'2004-11-08'
p57
aS'2004-11-09'
p58
aS'2004-11-10'
p59
aS'2004-11-11'
p60
aS'2004-11-12'
p61
aS'2004-11-15'
p62
aS'2004-11-16'
p63
aS'2004-11-17'
p64
aS'2004-11-18'
p65
aS'2004-11-19'
p66
aS'2004-11-22'
p67
aS'2004-11-23'
p68
aS'2004-11-24'
p69
aS'2004-11-26'
p70
aS'2004-11-29'
p71
aS'2004-11-30'
p72
aS'2004-12-01'
p73
aS'2004-12-02'
p74
aS'2004-12-03'
p75
aS'2004-12-06'
p76
aS'2004-12-07'
p77
aS'2004-12-08'
p78
aS'2004-12-09'
p79
aS'2004-12-10'
p80
aS'2004-12-13'
p81
aS'2004-12-14'
p82
aS'2004-12-15'
p83
aS'2004-12-16'
p84
aS'2004-12-17'
p85
aS'2004-12-20'
p86
aS'2004-12-21'
p87
aS'2004-12-22'
p88
aS'2004-12-23'
p89
aS'2004-12-27'
p90
aS'2004-12-28'
p91
aS'2004-12-29'
p92
aS'2004-12-30'
p93
aS'2004-12-31'
p94
aS'2005-01-03'
p95
aS'2005-01-04'
p96
aS'2005-01-05'
p97
aS'2005-01-06'
p98
aS'2005-01-07'
p99
aS'2005-01-10'
p100
aS'2005-01-11'
p101
aS'2005-01-12'
p102
aS'2005-01-13'
p103
aS'2005-01-14'
p104
aS'2005-01-18'
p105
aS'2005-01-19'
p106
aS'2005-01-20'
p107
aS'2005-01-21'
p108
aS'2005-01-24'
p109
aS'2005-01-25'
p110
aS'2005-01-26'
p111
aS'2005-01-27'
p112
aS'2005-01-28'
p113
aS'2005-01-31'
p114
aS'2005-02-01'
p115
aS'2005-02-02'
p116
aS'2005-02-03'
p117
aS'2005-02-04'
p118
aS'2005-02-07'
p119
aS'2005-02-08'
p120
aS'2005-02-09'
p121
aS'2005-02-10'
p122
aS'2005-02-11'
p123
aS'2005-02-14'
p124
aS'2005-02-15'
p125
aS'2005-02-16'
p126
aS'2005-02-17'
p127
aS'2005-02-18'
p128
aS'2005-02-22'
p129
aS'2005-02-23'
p130
aS'2005-02-24'
p131
aS'2005-02-25'
p132
aS'2005-02-28'
p133
aS'2005-03-01'
p134
aS'2005-03-02'
p135
aS'2005-03-03'
p136
aS'2005-03-04'
p137
aS'2005-03-07'
p138
aS'2005-03-08'
p139
aS'2005-03-09'
p140
aS'2005-03-10'
p141
aS'2005-03-11'
p142
aS'2005-03-14'
p143
aS'2005-03-15'
p144
aS'2005-03-16'
p145
aS'2005-03-17'
p146
aS'2005-03-18'
p147
aS'2005-03-21'
p148
aS'2005-03-22'
p149
aS'2005-03-23'
p150
aS'2005-03-24'
p151
aS'2005-03-28'
p152
aS'2005-03-29'
p153
aS'2005-03-30'
p154
aS'2005-03-31'
p155
aS'2005-04-01'
p156
aS'2005-04-04'
p157
aS'2005-04-05'
p158
aS'2005-04-06'
p159
aS'2005-04-07'
p160
aS'2005-04-08'
p161
aS'2005-04-11'
p162
aS'2005-04-12'
p163
aS'2005-04-13'
p164
aS'2005-04-14'
p165
aS'2005-04-15'
p166
aS'2005-04-18'
p167
aS'2005-04-19'
p168
aS'2005-04-20'
p169
aS'2005-04-21'
p170
aS'2005-04-22'
p171
aS'2005-04-25'
p172
aS'2005-04-26'
p173
aS'2005-04-27'
p174
aS'2005-04-28'
p175
aS'2005-04-29'
p176
aS'2005-05-02'
p177
aS'2005-05-03'
p178
aS'2005-05-04'
p179
aS'2005-05-05'
p180
aS'2005-05-06'
p181
aS'2005-05-09'
p182
aS'2005-05-10'
p183
aS'2005-05-11'
p184
aS'2005-05-12'
p185
aS'2005-05-13'
p186
aS'2005-05-16'
p187
aS'2005-05-17'
p188
aS'2005-05-18'
p189
aS'2005-05-19'
p190
aS'2005-05-20'
p191
aS'2005-05-23'
p192
aS'2005-05-24'
p193
aS'2005-05-25'
p194
aS'2005-05-26'
p195
aS'2005-05-27'
p196
aS'2005-05-31'
p197
aS'2005-06-01'
p198
aS'2005-06-02'
p199
aS'2005-06-03'
p200
aS'2005-06-06'
p201
aS'2005-06-07'
p202
aS'2005-06-08'
p203
aS'2005-06-09'
p204
aS'2005-06-10'
p205
aS'2005-06-13'
p206
aS'2005-06-14'
p207
aS'2005-06-15'
p208
aS'2005-06-16'
p209
aS'2005-06-17'
p210
aS'2005-06-20'
p211
aS'2005-06-21'
p212
aS'2005-06-22'
p213
aS'2005-06-23'
p214
aS'2005-06-24'
p215
aS'2005-06-27'
p216
aS'2005-06-28'
p217
aS'2005-06-29'
p218
aS'2005-06-30'
p219
aS'2005-07-01'
p220
aS'2005-07-05'
p221
aS'2005-07-06'
p222
aS'2005-07-07'
p223
aS'2005-07-08'
p224
aS'2005-07-11'
p225
aS'2005-07-12'
p226
aS'2005-07-13'
p227
aS'2005-07-14'
p228
aS'2005-07-15'
p229
aS'2005-07-18'
p230
aS'2005-07-19'
p231
aS'2005-07-20'
p232
aS'2005-07-21'
p233
aS'2005-07-22'
p234
aS'2005-07-25'
p235
aS'2005-07-26'
p236
aS'2005-07-27'
p237
aS'2005-07-28'
p238
aS'2005-07-29'
p239
aS'2005-08-01'
p240
aS'2005-08-02'
p241
aS'2005-08-03'
p242
aS'2005-08-04'
p243
aS'2005-08-05'
p244
aS'2005-08-08'
p245
aS'2005-08-09'
p246
aS'2005-08-10'
p247
aS'2005-08-11'
p248
aS'2005-08-12'
p249
aS'2005-08-15'
p250
aS'2005-08-16'
p251
aS'2005-08-17'
p252
aS'2005-08-18'
p253
aS'2005-08-19'
p254
aS'2005-08-22'
p255
aS'2005-08-23'
p256
aS'2005-08-24'
p257
aS'2005-08-25'
p258
aS'2005-08-26'
p259
aS'2005-08-29'
p260
aS'2005-08-30'
p261
aS'2005-08-31'
p262
aS'2005-09-01'
p263
aS'2005-09-02'
p264
aS'2005-09-06'
p265
aS'2005-09-07'
p266
aS'2005-09-08'
p267
aS'2005-09-09'
p268
aS'2005-09-12'
p269
aS'2005-09-13'
p270
aS'2005-09-14'
p271
aS'2005-09-15'
p272
aS'2005-09-16'
p273
aS'2005-09-19'
p274
aS'2005-09-20'
p275
aS'2005-09-21'
p276
aS'2005-09-22'
p277
aS'2005-09-23'
p278
aS'2005-09-26'
p279
aS'2005-09-27'
p280
aS'2005-09-28'
p281
aS'2005-09-29'
p282
aS'2005-09-30'
p283
aS'2005-10-03'
p284
aS'2005-10-04'
p285
aS'2005-10-05'
p286
aS'2005-10-06'
p287
aS'2005-10-07'
p288
aS'2005-10-10'
p289
aS'2005-10-11'
p290
aS'2005-10-12'
p291
aS'2005-10-13'
p292
aS'2005-10-14'
p293
aS'2005-10-17'
p294
aS'2005-10-18'
p295
aS'2005-10-19'
p296
aS'2005-10-20'
p297
aS'2005-10-21'
p298
aS'2005-10-24'
p299
aS'2005-10-25'
p300
aS'2005-10-26'
p301
aS'2005-10-27'
p302
aS'2005-10-28'
p303
aS'2005-10-31'
p304
aS'2005-11-01'
p305
aS'2005-11-02'
p306
aS'2005-11-03'
p307
aS'2005-11-04'
p308
aS'2005-11-07'
p309
aS'2005-11-08'
p310
aS'2005-11-09'
p311
aS'2005-11-10'
p312
aS'2005-11-11'
p313
aS'2005-11-14'
p314
aS'2005-11-15'
p315
aS'2005-11-16'
p316
aS'2005-11-17'
p317
aS'2005-11-18'
p318
aS'2005-11-21'
p319
aS'2005-11-22'
p320
aS'2005-11-23'
p321
aS'2005-11-25'
p322
aS'2005-11-28'
p323
aS'2005-11-29'
p324
aS'2005-11-30'
p325
aS'2005-12-01'
p326
aS'2005-12-02'
p327
aS'2005-12-05'
p328
aS'2005-12-06'
p329
aS'2005-12-07'
p330
aS'2005-12-08'
p331
aS'2005-12-09'
p332
aS'2005-12-12'
p333
aS'2005-12-13'
p334
aS'2005-12-14'
p335
aS'2005-12-15'
p336
aS'2005-12-16'
p337
aS'2005-12-19'
p338
aS'2005-12-20'
p339
aS'2005-12-21'
p340
aS'2005-12-22'
p341
aS'2005-12-23'
p342
aS'2005-12-27'
p343
aS'2005-12-28'
p344
aS'2005-12-29'
p345
aS'2005-12-30'
p346
aS'2006-01-03'
p347
aS'2006-01-04'
p348
aS'2006-01-05'
p349
aS'2006-01-06'
p350
aS'2006-01-09'
p351
aS'2006-01-10'
p352
aS'2006-01-11'
p353
aS'2006-01-12'
p354
aS'2006-01-13'
p355
aS'2006-01-17'
p356
aS'2006-01-18'
p357
aS'2006-01-19'
p358
aS'2006-01-20'
p359
aS'2006-01-23'
p360
aS'2006-01-24'
p361
aS'2006-01-25'
p362
aS'2006-01-26'
p363
aS'2006-01-27'
p364
aS'2006-01-30'
p365
aS'2006-01-31'
p366
aS'2006-02-01'
p367
aS'2006-02-02'
p368
aS'2006-02-03'
p369
aS'2006-02-06'
p370
aS'2006-02-07'
p371
aS'2006-02-08'
p372
aS'2006-02-09'
p373
aS'2006-02-10'
p374
aS'2006-02-13'
p375
aS'2006-02-14'
p376
aS'2006-02-15'
p377
aS'2006-02-16'
p378
aS'2006-02-17'
p379
aS'2006-02-21'
p380
aS'2006-02-22'
p381
aS'2006-02-23'
p382
aS'2006-02-24'
p383
aS'2006-02-27'
p384
aS'2006-02-28'
p385
aS'2006-03-01'
p386
aS'2006-03-02'
p387
aS'2006-03-03'
p388
aS'2006-03-06'
p389
aS'2006-03-07'
p390
aS'2006-03-08'
p391
aS'2006-03-09'
p392
aS'2006-03-10'
p393
aS'2006-03-13'
p394
aS'2006-03-14'
p395
aS'2006-03-15'
p396
aS'2006-03-16'
p397
aS'2006-03-17'
p398
aS'2006-03-20'
p399
aS'2006-03-21'
p400
aS'2006-03-22'
p401
aS'2006-03-23'
p402
aS'2006-03-24'
p403
aS'2006-03-27'
p404
aS'2006-03-28'
p405
aS'2006-03-29'
p406
aS'2006-03-30'
p407
aS'2006-03-31'
p408
aS'2006-04-03'
p409
aS'2006-04-04'
p410
aS'2006-04-05'
p411
aS'2006-04-06'
p412
aS'2006-04-07'
p413
aS'2006-04-10'
p414
aS'2006-04-11'
p415
aS'2006-04-12'
p416
aS'2006-04-13'
p417
aS'2006-04-17'
p418
aS'2006-04-18'
p419
aS'2006-04-19'
p420
aS'2006-04-20'
p421
aS'2006-04-21'
p422
aS'2006-04-24'
p423
aS'2006-04-25'
p424
aS'2006-04-26'
p425
aS'2006-04-27'
p426
aS'2006-04-28'
p427
aS'2006-05-01'
p428
aS'2006-05-02'
p429
aS'2006-05-03'
p430
aS'2006-05-04'
p431
aS'2006-05-05'
p432
aS'2006-05-08'
p433
aS'2006-05-09'
p434
aS'2006-05-10'
p435
aS'2006-05-11'
p436
aS'2006-05-12'
p437
aS'2006-05-15'
p438
aS'2006-05-16'
p439
aS'2006-05-17'
p440
aS'2006-05-18'
p441
aS'2006-05-19'
p442
aS'2006-05-22'
p443
aS'2006-05-23'
p444
aS'2006-05-24'
p445
aS'2006-05-25'
p446
aS'2006-05-26'
p447
aS'2006-05-30'
p448
aS'2006-05-31'
p449
aS'2006-06-01'
p450
aS'2006-06-02'
p451
aS'2006-06-05'
p452
aS'2006-06-06'
p453
aS'2006-06-07'
p454
aS'2006-06-08'
p455
aS'2006-06-09'
p456
aS'2006-06-12'
p457
aS'2006-06-13'
p458
aS'2006-06-14'
p459
aS'2006-06-15'
p460
aS'2006-06-16'
p461
aS'2006-06-19'
p462
aS'2006-06-20'
p463
aS'2006-06-21'
p464
aS'2006-06-22'
p465
aS'2006-06-23'
p466
aS'2006-06-26'
p467
aS'2006-06-27'
p468
aS'2006-06-28'
p469
aS'2006-06-29'
p470
aS'2006-06-30'
p471
aS'2006-07-03'
p472
aS'2006-07-05'
p473
aS'2006-07-06'
p474
aS'2006-07-07'
p475
aS'2006-07-10'
p476
aS'2006-07-11'
p477
aS'2006-07-12'
p478
aS'2006-07-13'
p479
aS'2006-07-14'
p480
aS'2006-07-17'
p481
aS'2006-07-18'
p482
aS'2006-07-19'
p483
aS'2006-07-20'
p484
aS'2006-07-21'
p485
aS'2006-07-24'
p486
aS'2006-07-25'
p487
aS'2006-07-26'
p488
aS'2006-07-27'
p489
aS'2006-07-28'
p490
aS'2006-07-31'
p491
aS'2006-08-01'
p492
aS'2006-08-02'
p493
aS'2006-08-03'
p494
aS'2006-08-04'
p495
aS'2006-08-07'
p496
aS'2006-08-08'
p497
aS'2006-08-09'
p498
aS'2006-08-10'
p499
aS'2006-08-11'
p500
aS'2006-08-14'
p501
aS'2006-08-15'
p502
aS'2006-08-16'
p503
aS'2006-08-17'
p504
aS'2006-08-18'
p505
aS'2006-08-21'
p506
aS'2006-08-22'
p507
aS'2006-08-23'
p508
aS'2006-08-24'
p509
aS'2006-08-25'
p510
aS'2006-08-28'
p511
aS'2006-08-29'
p512
aS'2006-08-30'
p513
aS'2006-08-31'
p514
aS'2006-09-01'
p515
aS'2006-09-05'
p516
aS'2006-09-06'
p517
aS'2006-09-07'
p518
aS'2006-09-08'
p519
aS'2006-09-11'
p520
aS'2006-09-12'
p521
aS'2006-09-13'
p522
aS'2006-09-14'
p523
aS'2006-09-15'
p524
aS'2006-09-18'
p525
aS'2006-09-19'
p526
aS'2006-09-20'
p527
aS'2006-09-21'
p528
aS'2006-09-22'
p529
aS'2006-09-25'
p530
aS'2006-09-26'
p531
aS'2006-09-27'
p532
aS'2006-09-28'
p533
aS'2006-09-29'
p534
aS'2006-10-02'
p535
aS'2006-10-03'
p536
aS'2006-10-04'
p537
aS'2006-10-05'
p538
aS'2006-10-06'
p539
aS'2006-10-09'
p540
aS'2006-10-10'
p541
aS'2006-10-11'
p542
aS'2006-10-12'
p543
aS'2006-10-13'
p544
aS'2006-10-16'
p545
aS'2006-10-17'
p546
aS'2006-10-18'
p547
aS'2006-10-19'
p548
aS'2006-10-20'
p549
aS'2006-10-23'
p550
aS'2006-10-24'
p551
aS'2006-10-25'
p552
aS'2006-10-26'
p553
aS'2006-10-27'
p554
aS'2006-10-30'
p555
aS'2006-10-31'
p556
aS'2006-11-01'
p557
aS'2006-11-02'
p558
aS'2006-11-03'
p559
aS'2006-11-06'
p560
aS'2006-11-07'
p561
aS'2006-11-08'
p562
aS'2006-11-09'
p563
aS'2006-11-10'
p564
aS'2006-11-13'
p565
aS'2006-11-14'
p566
aS'2006-11-15'
p567
aS'2006-11-16'
p568
aS'2006-11-17'
p569
aS'2006-11-20'
p570
aS'2006-11-21'
p571
aS'2006-11-22'
p572
aS'2006-11-24'
p573
aS'2006-11-27'
p574
aS'2006-11-28'
p575
aS'2006-11-29'
p576
aS'2006-11-30'
p577
aS'2006-12-01'
p578
aS'2006-12-04'
p579
aS'2006-12-05'
p580
aS'2006-12-06'
p581
aS'2006-12-07'
p582
aS'2006-12-08'
p583
aS'2006-12-11'
p584
aS'2006-12-12'
p585
aS'2006-12-13'
p586
aS'2006-12-14'
p587
aS'2006-12-15'
p588
aS'2006-12-18'
p589
aS'2006-12-19'
p590
aS'2006-12-20'
p591
aS'2006-12-21'
p592
aS'2006-12-22'
p593
aS'2006-12-26'
p594
aS'2006-12-27'
p595
aS'2006-12-28'
p596
aS'2006-12-29'
p597
aS'2007-01-03'
p598
aS'2007-01-04'
p599
aS'2007-01-05'
p600
aS'2007-01-08'
p601
aS'2007-01-09'
p602
aS'2007-01-10'
p603
aS'2007-01-11'
p604
aS'2007-01-12'
p605
aS'2007-01-16'
p606
aS'2007-01-17'
p607
aS'2007-01-18'
p608
aS'2007-01-19'
p609
aS'2007-01-22'
p610
aS'2007-01-23'
p611
aS'2007-01-24'
p612
aS'2007-01-25'
p613
aS'2007-01-26'
p614
aS'2007-01-29'
p615
aS'2007-01-30'
p616
aS'2007-01-31'
p617
aS'2007-02-01'
p618
aS'2007-02-02'
p619
aS'2007-02-05'
p620
aS'2007-02-06'
p621
aS'2007-02-07'
p622
aS'2007-02-08'
p623
aS'2007-02-09'
p624
aS'2007-02-12'
p625
aS'2007-02-13'
p626
aS'2007-02-14'
p627
aS'2007-02-15'
p628
aS'2007-02-16'
p629
aS'2007-02-20'
p630
aS'2007-02-21'
p631
aS'2007-02-22'
p632
aS'2007-02-23'
p633
aS'2007-02-26'
p634
aS'2007-02-27'
p635
aS'2007-02-28'
p636
aS'2007-03-01'
p637
aS'2007-03-02'
p638
aS'2007-03-05'
p639
aS'2007-03-06'
p640
aS'2007-03-07'
p641
aS'2007-03-08'
p642
aS'2007-03-09'
p643
aS'2007-03-12'
p644
aS'2007-03-13'
p645
aS'2007-03-14'
p646
aS'2007-03-15'
p647
aS'2007-03-16'
p648
aS'2007-03-19'
p649
aS'2007-03-20'
p650
aS'2007-03-21'
p651
aS'2007-03-22'
p652
aS'2007-03-23'
p653
aS'2007-03-26'
p654
aS'2007-03-27'
p655
aS'2007-03-28'
p656
aS'2007-03-29'
p657
aS'2007-03-30'
p658
aS'2007-04-02'
p659
aS'2007-04-03'
p660
aS'2007-04-04'
p661
aS'2007-04-05'
p662
aS'2007-04-09'
p663
aS'2007-04-10'
p664
aS'2007-04-11'
p665
aS'2007-04-12'
p666
aS'2007-04-13'
p667
aS'2007-04-16'
p668
aS'2007-04-17'
p669
aS'2007-04-18'
p670
aS'2007-04-19'
p671
aS'2007-04-20'
p672
aS'2007-04-23'
p673
aS'2007-04-24'
p674
aS'2007-04-25'
p675
aS'2007-04-26'
p676
aS'2007-04-27'
p677
aS'2007-04-30'
p678
aS'2007-05-01'
p679
aS'2007-05-02'
p680
aS'2007-05-03'
p681
aS'2007-05-04'
p682
aS'2007-05-07'
p683
aS'2007-05-08'
p684
aS'2007-05-09'
p685
aS'2007-05-10'
p686
aS'2007-05-11'
p687
aS'2007-05-14'
p688
aS'2007-05-15'
p689
aS'2007-05-16'
p690
aS'2007-05-17'
p691
aS'2007-05-18'
p692
aS'2007-05-21'
p693
aS'2007-05-22'
p694
aS'2007-05-23'
p695
aS'2007-05-24'
p696
aS'2007-05-25'
p697
aS'2007-05-29'
p698
aS'2007-05-30'
p699
aS'2007-05-31'
p700
aS'2007-06-01'
p701
aS'2007-06-04'
p702
aS'2007-06-05'
p703
aS'2007-06-06'
p704
aS'2007-06-07'
p705
aS'2007-06-08'
p706
aS'2007-06-11'
p707
aS'2007-06-12'
p708
aS'2007-06-13'
p709
aS'2007-06-14'
p710
aS'2007-06-15'
p711
aS'2007-06-18'
p712
aS'2007-06-19'
p713
aS'2007-06-20'
p714
aS'2007-06-21'
p715
aS'2007-06-22'
p716
aS'2007-06-25'
p717
aS'2007-06-26'
p718
aS'2007-06-27'
p719
aS'2007-06-28'
p720
aS'2007-06-29'
p721
aS'2007-07-02'
p722
aS'2007-07-03'
p723
aS'2007-07-05'
p724
aS'2007-07-06'
p725
aS'2007-07-09'
p726
aS'2007-07-10'
p727
aS'2007-07-11'
p728
aS'2007-07-12'
p729
aS'2007-07-13'
p730
aS'2007-07-16'
p731
aS'2007-07-17'
p732
aS'2007-07-18'
p733
aS'2007-07-19'
p734
aS'2007-07-20'
p735
aS'2007-07-23'
p736
aS'2007-07-24'
p737
aS'2007-07-25'
p738
aS'2007-07-26'
p739
aS'2007-07-27'
p740
aS'2007-07-30'
p741
aS'2007-07-31'
p742
aS'2007-08-01'
p743
aS'2007-08-02'
p744
aS'2007-08-03'
p745
aS'2007-08-06'
p746
aS'2007-08-07'
p747
aS'2007-08-08'
p748
aS'2007-08-09'
p749
aS'2007-08-10'
p750
aS'2007-08-13'
p751
aS'2007-08-14'
p752
aS'2007-08-15'
p753
aS'2007-08-16'
p754
aS'2007-08-17'
p755
aS'2007-08-20'
p756
aS'2007-08-21'
p757
aS'2007-08-22'
p758
aS'2007-08-23'
p759
aS'2007-08-24'
p760
aS'2007-08-27'
p761
aS'2007-08-28'
p762
aS'2007-08-29'
p763
aS'2007-08-30'
p764
aS'2007-08-31'
p765
aS'2007-09-04'
p766
aS'2007-09-05'
p767
aS'2007-09-06'
p768
aS'2007-09-07'
p769
aS'2007-09-10'
p770
aS'2007-09-11'
p771
aS'2007-09-12'
p772
aS'2007-09-13'
p773
aS'2007-09-14'
p774
aS'2007-09-17'
p775
aS'2007-09-18'
p776
aS'2007-09-19'
p777
aS'2007-09-20'
p778
aS'2007-09-21'
p779
aS'2007-09-24'
p780
aS'2007-09-25'
p781
aS'2007-09-26'
p782
aS'2007-09-27'
p783
aS'2007-09-28'
p784
aS'2007-10-01'
p785
aS'2007-10-02'
p786
aS'2007-10-03'
p787
aS'2007-10-04'
p788
aS'2007-10-05'
p789
aS'2007-10-08'
p790
aS'2007-10-09'
p791
aS'2007-10-10'
p792
aS'2007-10-11'
p793
aS'2007-10-12'
p794
aS'2007-10-15'
p795
aS'2007-10-16'
p796
aS'2007-10-17'
p797
aS'2007-10-18'
p798
aS'2007-10-19'
p799
aS'2007-10-22'
p800
aS'2007-10-23'
p801
aS'2007-10-24'
p802
aS'2007-10-25'
p803
aS'2007-10-26'
p804
aS'2007-10-29'
p805
aS'2007-10-30'
p806
aS'2007-10-31'
p807
aS'2007-11-01'
p808
aS'2007-11-02'
p809
aS'2007-11-05'
p810
aS'2007-11-06'
p811
aS'2007-11-07'
p812
aS'2007-11-08'
p813
aS'2007-11-09'
p814
aS'2007-11-12'
p815
aS'2007-11-13'
p816
aS'2007-11-14'
p817
aS'2007-11-15'
p818
aS'2007-11-16'
p819
aS'2007-11-19'
p820
aS'2007-11-20'
p821
aS'2007-11-21'
p822
aS'2007-11-23'
p823
aS'2007-11-26'
p824
aS'2007-11-27'
p825
aS'2007-11-28'
p826
aS'2007-11-29'
p827
aS'2007-11-30'
p828
aS'2007-12-03'
p829
aS'2007-12-04'
p830
aS'2007-12-05'
p831
aS'2007-12-06'
p832
aS'2007-12-07'
p833
aS'2007-12-10'
p834
aS'2007-12-11'
p835
aS'2007-12-12'
p836
aS'2007-12-13'
p837
aS'2007-12-14'
p838
aS'2007-12-17'
p839
aS'2007-12-18'
p840
aS'2007-12-19'
p841
aS'2007-12-20'
p842
aS'2007-12-21'
p843
aS'2007-12-24'
p844
aS'2007-12-26'
p845
aS'2007-12-27'
p846
aS'2007-12-28'
p847
aS'2007-12-31'
p848
aS'2008-01-02'
p849
aS'2008-01-03'
p850
aS'2008-01-04'
p851
aS'2008-01-07'
p852
aS'2008-01-08'
p853
aS'2008-01-09'
p854
aS'2008-01-10'
p855
aS'2008-01-11'
p856
aS'2008-01-14'
p857
aS'2008-01-15'
p858
aS'2008-01-16'
p859
aS'2008-01-17'
p860
aS'2008-01-18'
p861
aS'2008-01-22'
p862
aS'2008-01-23'
p863
aS'2008-01-24'
p864
aS'2008-01-25'
p865
aS'2008-01-28'
p866
aS'2008-01-29'
p867
aS'2008-01-30'
p868
aS'2008-01-31'
p869
aS'2008-02-01'
p870
aS'2008-02-04'
p871
aS'2008-02-05'
p872
aS'2008-02-06'
p873
aS'2008-02-07'
p874
aS'2008-02-08'
p875
aS'2008-02-11'
p876
aS'2008-02-12'
p877
aS'2008-02-13'
p878
aS'2008-02-14'
p879
aS'2008-02-15'
p880
aS'2008-02-19'
p881
aS'2008-02-20'
p882
aS'2008-02-21'
p883
aS'2008-02-22'
p884
aS'2008-02-25'
p885
aS'2008-02-26'
p886
aS'2008-02-27'
p887
aS'2008-02-28'
p888
aS'2008-02-29'
p889
aS'2008-03-03'
p890
aS'2008-03-04'
p891
aS'2008-03-05'
p892
aS'2008-03-06'
p893
aS'2008-03-07'
p894
aS'2008-03-10'
p895
aS'2008-03-11'
p896
aS'2008-03-12'
p897
aS'2008-03-13'
p898
aS'2008-03-14'
p899
aS'2008-03-17'
p900
aS'2008-03-18'
p901
aS'2008-03-19'
p902
aS'2008-03-20'
p903
aS'2008-03-24'
p904
aS'2008-03-25'
p905
aS'2008-03-26'
p906
aS'2008-03-27'
p907
aS'2008-03-28'
p908
aS'2008-03-31'
p909
aS'2008-04-01'
p910
aS'2008-04-02'
p911
aS'2008-04-03'
p912
aS'2008-04-04'
p913
aS'2008-04-07'
p914
aS'2008-04-08'
p915
aS'2008-04-09'
p916
aS'2008-04-10'
p917
aS'2008-04-11'
p918
aS'2008-04-14'
p919
aS'2008-04-15'
p920
aS'2008-04-16'
p921
aS'2008-04-17'
p922
aS'2008-04-18'
p923
aS'2008-04-21'
p924
aS'2008-04-22'
p925
aS'2008-04-23'
p926
aS'2008-04-24'
p927
aS'2008-04-25'
p928
aS'2008-04-28'
p929
aS'2008-04-29'
p930
aS'2008-04-30'
p931
aS'2008-05-01'
p932
aS'2008-05-02'
p933
aS'2008-05-05'
p934
aS'2008-05-06'
p935
aS'2008-05-07'
p936
aS'2008-05-08'
p937
aS'2008-05-09'
p938
aS'2008-05-12'
p939
aS'2008-05-13'
p940
aS'2008-05-14'
p941
aS'2008-05-15'
p942
aS'2008-05-16'
p943
aS'2008-05-19'
p944
aS'2008-05-20'
p945
aS'2008-05-21'
p946
aS'2008-05-22'
p947
aS'2008-05-23'
p948
aS'2008-05-27'
p949
aS'2008-05-28'
p950
aS'2008-05-29'
p951
aS'2008-05-30'
p952
aS'2008-06-02'
p953
aS'2008-06-03'
p954
aS'2008-06-04'
p955
aS'2008-06-05'
p956
aS'2008-06-06'
p957
aS'2008-06-09'
p958
aS'2008-06-10'
p959
aS'2008-06-11'
p960
aS'2008-06-12'
p961
aS'2008-06-13'
p962
aS'2008-06-16'
p963
aS'2008-06-17'
p964
aS'2008-06-18'
p965
aS'2008-06-19'
p966
aS'2008-06-20'
p967
aS'2008-06-23'
p968
aS'2008-06-24'
p969
aS'2008-06-25'
p970
aS'2008-06-26'
p971
aS'2008-06-27'
p972
aS'2008-06-30'
p973
aS'2008-07-01'
p974
aS'2008-07-02'
p975
aS'2008-07-03'
p976
aS'2008-07-07'
p977
aS'2008-07-08'
p978
aS'2008-07-09'
p979
aS'2008-07-10'
p980
aS'2008-07-11'
p981
aS'2008-07-14'
p982
aS'2008-07-15'
p983
aS'2008-07-16'
p984
aS'2008-07-17'
p985
aS'2008-07-18'
p986
aS'2008-07-21'
p987
aS'2008-07-22'
p988
aS'2008-07-23'
p989
aS'2008-07-24'
p990
aS'2008-07-25'
p991
aS'2008-07-28'
p992
aS'2008-07-29'
p993
aS'2008-07-30'
p994
aS'2008-07-31'
p995
aS'2008-08-01'
p996
aS'2008-08-04'
p997
aS'2008-08-05'
p998
aS'2008-08-06'
p999
aS'2008-08-07'
p1000
aS'2008-08-08'
p1001
aS'2008-08-11'
p1002
aS'2008-08-12'
p1003
aS'2008-08-13'
p1004
aS'2008-08-14'
p1005
aS'2008-08-15'
p1006
aS'2008-08-18'
p1007
aS'2008-08-19'
p1008
aS'2008-08-20'
p1009
aS'2008-08-21'
p1010
aS'2008-08-22'
p1011
aS'2008-08-25'
p1012
aS'2008-08-26'
p1013
aS'2008-08-27'
p1014
aS'2008-08-28'
p1015
aS'2008-08-29'
p1016
aS'2008-09-02'
p1017
aS'2008-09-03'
p1018
aS'2008-09-04'
p1019
aS'2008-09-05'
p1020
aS'2008-09-08'
p1021
aS'2008-09-09'
p1022
aS'2008-09-10'
p1023
aS'2008-09-11'
p1024
aS'2008-09-12'
p1025
aS'2008-09-15'
p1026
aS'2008-09-16'
p1027
aS'2008-09-17'
p1028
aS'2008-09-18'
p1029
aS'2008-09-19'
p1030
aS'2008-09-22'
p1031
aS'2008-09-23'
p1032
aS'2008-09-24'
p1033
aS'2008-09-25'
p1034
aS'2008-09-26'
p1035
aS'2008-09-29'
p1036
aS'2008-09-30'
p1037
aS'2008-10-01'
p1038
aS'2008-10-02'
p1039
aS'2008-10-03'
p1040
aS'2008-10-06'
p1041
aS'2008-10-07'
p1042
aS'2008-10-08'
p1043
aS'2008-10-09'
p1044
aS'2008-10-10'
p1045
aS'2008-10-13'
p1046
aS'2008-10-14'
p1047
aS'2008-10-15'
p1048
aS'2008-10-16'
p1049
aS'2008-10-17'
p1050
aS'2008-10-20'
p1051
aS'2008-10-21'
p1052
aS'2008-10-22'
p1053
aS'2008-10-23'
p1054
aS'2008-10-24'
p1055
aS'2008-10-27'
p1056
aS'2008-10-28'
p1057
aS'2008-10-29'
p1058
aS'2008-10-30'
p1059
aS'2008-10-31'
p1060
aS'2008-11-03'
p1061
aS'2008-11-04'
p1062
aS'2008-11-05'
p1063
aS'2008-11-06'
p1064
aS'2008-11-07'
p1065
aS'2008-11-10'
p1066
aS'2008-11-11'
p1067
aS'2008-11-12'
p1068
aS'2008-11-13'
p1069
aS'2008-11-14'
p1070
aS'2008-11-17'
p1071
aS'2008-11-18'
p1072
aS'2008-11-19'
p1073
aS'2008-11-20'
p1074
aS'2008-11-21'
p1075
aS'2008-11-24'
p1076
aS'2008-11-25'
p1077
aS'2008-11-26'
p1078
aS'2008-11-28'
p1079
aS'2008-12-01'
p1080
aS'2008-12-02'
p1081
aS'2008-12-03'
p1082
aS'2008-12-04'
p1083
aS'2008-12-05'
p1084
aS'2008-12-08'
p1085
aS'2008-12-09'
p1086
aS'2008-12-10'
p1087
aS'2008-12-11'
p1088
aS'2008-12-12'
p1089
aS'2008-12-15'
p1090
aS'2008-12-16'
p1091
aS'2008-12-17'
p1092
aS'2008-12-18'
p1093
aS'2008-12-19'
p1094
aS'2008-12-22'
p1095
aS'2008-12-23'
p1096
aS'2008-12-24'
p1097
aS'2008-12-26'
p1098
aS'2008-12-29'
p1099
aS'2008-12-30'
p1100
aS'2008-12-31'
p1101
aS'2009-01-02'
p1102
aS'2009-01-05'
p1103
aS'2009-01-06'
p1104
aS'2009-01-07'
p1105
aS'2009-01-08'
p1106
aS'2009-01-09'
p1107
aS'2009-01-12'
p1108
aS'2009-01-13'
p1109
aS'2009-01-14'
p1110
aS'2009-01-15'
p1111
aS'2009-01-16'
p1112
aS'2009-01-20'
p1113
aS'2009-01-21'
p1114
aS'2009-01-22'
p1115
aS'2009-01-23'
p1116
aS'2009-01-26'
p1117
aS'2009-01-27'
p1118
aS'2009-01-28'
p1119
aS'2009-01-29'
p1120
aS'2009-01-30'
p1121
aS'2009-02-02'
p1122
aS'2009-02-03'
p1123
aS'2009-02-04'
p1124
aS'2009-02-05'
p1125
aS'2009-02-06'
p1126
aS'2009-02-09'
p1127
aS'2009-02-10'
p1128
aS'2009-02-11'
p1129
aS'2009-02-12'
p1130
aS'2009-02-13'
p1131
aS'2009-02-17'
p1132
aS'2009-02-18'
p1133
aS'2009-02-19'
p1134
aS'2009-02-20'
p1135
aS'2009-02-23'
p1136
aS'2009-02-24'
p1137
aS'2009-02-25'
p1138
aS'2009-02-26'
p1139
aS'2009-02-27'
p1140
aS'2009-03-02'
p1141
aS'2009-03-03'
p1142
aS'2009-03-04'
p1143
aS'2009-03-05'
p1144
aS'2009-03-06'
p1145
aS'2009-03-09'
p1146
aS'2009-03-10'
p1147
aS'2009-03-11'
p1148
aS'2009-03-12'
p1149
aS'2009-03-13'
p1150
aS'2009-03-16'
p1151
aS'2009-03-17'
p1152
aS'2009-03-18'
p1153
aS'2009-03-19'
p1154
aS'2009-03-20'
p1155
aS'2009-03-23'
p1156
aS'2009-03-24'
p1157
aS'2009-03-25'
p1158
aS'2009-03-26'
p1159
aS'2009-03-27'
p1160
aS'2009-03-30'
p1161
aS'2009-03-31'
p1162
aS'2009-04-01'
p1163
aS'2009-04-02'
p1164
aS'2009-04-03'
p1165
aS'2009-04-06'
p1166
aS'2009-04-07'
p1167
aS'2009-04-08'
p1168
aS'2009-04-09'
p1169
aS'2009-04-13'
p1170
aS'2009-04-14'
p1171
aS'2009-04-15'
p1172
aS'2009-04-16'
p1173
aS'2009-04-17'
p1174
aS'2009-04-20'
p1175
aS'2009-04-21'
p1176
aS'2009-04-22'
p1177
aS'2009-04-23'
p1178
aS'2009-04-24'
p1179
aS'2009-04-27'
p1180
aS'2009-04-28'
p1181
aS'2009-04-29'
p1182
aS'2009-04-30'
p1183
aS'2009-05-01'
p1184
aS'2009-05-04'
p1185
aS'2009-05-05'
p1186
aS'2009-05-06'
p1187
aS'2009-05-07'
p1188
aS'2009-05-08'
p1189
aS'2009-05-11'
p1190
aS'2009-05-12'
p1191
aS'2009-05-13'
p1192
aS'2009-05-14'
p1193
aS'2009-05-15'
p1194
aS'2009-05-18'
p1195
aS'2009-05-19'
p1196
aS'2009-05-20'
p1197
aS'2009-05-21'
p1198
aS'2009-05-22'
p1199
aS'2009-05-26'
p1200
aS'2009-05-27'
p1201
aS'2009-05-28'
p1202
aS'2009-05-29'
p1203
aS'2009-06-01'
p1204
aS'2009-06-02'
p1205
aS'2009-06-03'
p1206
aS'2009-06-04'
p1207
aS'2009-06-05'
p1208
aS'2009-06-08'
p1209
aS'2009-06-09'
p1210
aS'2009-06-10'
p1211
aS'2009-06-11'
p1212
aS'2009-06-12'
p1213
aS'2009-06-15'
p1214
aS'2009-06-16'
p1215
aS'2009-06-17'
p1216
aS'2009-06-18'
p1217
aS'2009-06-19'
p1218
aS'2009-06-22'
p1219
aS'2009-06-23'
p1220
aS'2009-06-24'
p1221
aS'2009-06-25'
p1222
aS'2009-06-26'
p1223
aS'2009-06-29'
p1224
aS'2009-06-30'
p1225
aS'2009-07-01'
p1226
a.