(lp0
S'1992-08-19'
p1
aS'1992-08-20'
p2
aS'1992-08-21'
p3
aS'1992-08-24'
p4
aS'1992-08-25'
p5
aS'1992-08-26'
p6
aS'1992-08-27'
p7
aS'1992-08-28'
p8
aS'1992-08-31'
p9
aS'1992-09-01'
p10
aS'1992-09-02'
p11
aS'1992-09-03'
p12
aS'1992-09-04'
p13
aS'1992-09-08'
p14
aS'1992-09-09'
p15
aS'1992-09-10'
p16
aS'1992-09-11'
p17
aS'1992-09-14'
p18
aS'1992-09-15'
p19
aS'1992-09-16'
p20
aS'1992-09-17'
p21
aS'1992-09-18'
p22
aS'1992-09-21'
p23
aS'1992-09-22'
p24
aS'1992-09-23'
p25
aS'1992-09-24'
p26
aS'1992-09-25'
p27
aS'1992-09-28'
p28
aS'1992-09-29'
p29
aS'1992-09-30'
p30
aS'1992-10-01'
p31
aS'1992-10-02'
p32
aS'1992-10-05'
p33
aS'1992-10-06'
p34
aS'1992-10-07'
p35
aS'1992-10-08'
p36
aS'1992-10-09'
p37
aS'1992-10-12'
p38
aS'1992-10-13'
p39
aS'1992-10-14'
p40
aS'1992-10-15'
p41
aS'1992-10-16'
p42
aS'1992-10-19'
p43
aS'1992-10-20'
p44
aS'1992-10-21'
p45
aS'1992-10-22'
p46
aS'1992-10-23'
p47
aS'1992-10-26'
p48
aS'1992-10-27'
p49
aS'1992-10-28'
p50
aS'1992-10-29'
p51
aS'1992-10-30'
p52
aS'1992-11-02'
p53
aS'1992-11-03'
p54
aS'1992-11-04'
p55
aS'1992-11-05'
p56
aS'1992-11-06'
p57
aS'1992-11-09'
p58
aS'1992-11-10'
p59
aS'1992-11-11'
p60
aS'1992-11-12'
p61
aS'1992-11-13'
p62
aS'1992-11-16'
p63
aS'1992-11-17'
p64
aS'1992-11-18'
p65
aS'1992-11-19'
p66
aS'1992-11-20'
p67
aS'1992-11-23'
p68
aS'1992-11-24'
p69
aS'1992-11-25'
p70
aS'1992-11-27'
p71
aS'1992-11-30'
p72
aS'1992-12-01'
p73
aS'1992-12-02'
p74
aS'1992-12-03'
p75
aS'1992-12-04'
p76
aS'1992-12-07'
p77
aS'1992-12-08'
p78
aS'1992-12-09'
p79
aS'1992-12-10'
p80
aS'1992-12-11'
p81
aS'1992-12-14'
p82
aS'1992-12-15'
p83
aS'1992-12-16'
p84
aS'1992-12-17'
p85
aS'1992-12-18'
p86
aS'1992-12-21'
p87
aS'1992-12-22'
p88
aS'1992-12-23'
p89
aS'1992-12-24'
p90
aS'1992-12-28'
p91
aS'1992-12-29'
p92
aS'1992-12-30'
p93
aS'1992-12-31'
p94
aS'1993-01-04'
p95
aS'1993-01-05'
p96
aS'1993-01-06'
p97
aS'1993-01-07'
p98
aS'1993-01-08'
p99
aS'1993-01-11'
p100
aS'1993-01-12'
p101
aS'1993-01-13'
p102
aS'1993-01-14'
p103
aS'1993-01-15'
p104
aS'1993-01-18'
p105
aS'1993-01-19'
p106
aS'1993-01-20'
p107
aS'1993-01-21'
p108
aS'1993-01-22'
p109
aS'1993-01-25'
p110
aS'1993-01-26'
p111
aS'1993-01-27'
p112
aS'1993-01-28'
p113
aS'1993-01-29'
p114
aS'1993-02-01'
p115
aS'1993-02-02'
p116
aS'1993-02-03'
p117
aS'1993-02-04'
p118
aS'1993-02-05'
p119
aS'1993-02-08'
p120
aS'1993-02-09'
p121
aS'1993-02-10'
p122
aS'1993-02-11'
p123
aS'1993-02-12'
p124
aS'1993-02-16'
p125
aS'1993-02-17'
p126
aS'1993-02-18'
p127
aS'1993-02-19'
p128
aS'1993-02-22'
p129
aS'1993-02-23'
p130
aS'1993-02-24'
p131
aS'1993-02-25'
p132
aS'1993-02-26'
p133
aS'1993-03-01'
p134
aS'1993-03-02'
p135
aS'1993-03-03'
p136
aS'1993-03-04'
p137
aS'1993-03-05'
p138
aS'1993-03-08'
p139
aS'1993-03-09'
p140
aS'1993-03-10'
p141
aS'1993-03-11'
p142
aS'1993-03-12'
p143
aS'1993-03-15'
p144
aS'1993-03-16'
p145
aS'1993-03-17'
p146
aS'1993-03-18'
p147
aS'1993-03-19'
p148
aS'1993-03-22'
p149
aS'1993-03-23'
p150
aS'1993-03-24'
p151
aS'1993-03-25'
p152
aS'1993-03-26'
p153
aS'1993-03-29'
p154
aS'1993-03-30'
p155
aS'1993-03-31'
p156
aS'1993-04-01'
p157
aS'1993-04-02'
p158
aS'1993-04-05'
p159
aS'1993-04-06'
p160
aS'1993-04-07'
p161
aS'1993-04-08'
p162
aS'1993-04-12'
p163
aS'1993-04-13'
p164
aS'1993-04-14'
p165
aS'1993-04-15'
p166
aS'1993-04-16'
p167
aS'1993-04-19'
p168
aS'1993-04-20'
p169
aS'1993-04-21'
p170
aS'1993-04-22'
p171
aS'1993-04-23'
p172
aS'1993-04-26'
p173
aS'1993-04-27'
p174
aS'1993-04-28'
p175
aS'1993-04-29'
p176
aS'1993-04-30'
p177
aS'1993-05-03'
p178
aS'1993-05-04'
p179
aS'1993-05-05'
p180
aS'1993-05-06'
p181
aS'1993-05-07'
p182
aS'1993-05-10'
p183
aS'1993-05-11'
p184
aS'1993-05-12'
p185
aS'1993-05-13'
p186
aS'1993-05-14'
p187
aS'1993-05-17'
p188
aS'1993-05-18'
p189
aS'1993-05-19'
p190
aS'1993-05-20'
p191
aS'1993-05-21'
p192
aS'1993-05-24'
p193
aS'1993-05-25'
p194
aS'1993-05-26'
p195
aS'1993-05-27'
p196
aS'1993-05-28'
p197
aS'1993-06-01'
p198
aS'1993-06-02'
p199
aS'1993-06-03'
p200
aS'1993-06-04'
p201
aS'1993-06-07'
p202
aS'1993-06-08'
p203
aS'1993-06-09'
p204
aS'1993-06-10'
p205
aS'1993-06-11'
p206
aS'1993-06-14'
p207
aS'1993-06-15'
p208
aS'1993-06-16'
p209
aS'1993-06-17'
p210
aS'1993-06-18'
p211
aS'1993-06-21'
p212
aS'1993-06-22'
p213
aS'1993-06-23'
p214
aS'1993-06-24'
p215
aS'1993-06-25'
p216
aS'1993-06-28'
p217
aS'1993-06-29'
p218
aS'1993-06-30'
p219
aS'1993-07-01'
p220
aS'1993-07-02'
p221
aS'1993-07-06'
p222
aS'1993-07-07'
p223
aS'1993-07-08'
p224
aS'1993-07-09'
p225
aS'1993-07-12'
p226
aS'1993-07-13'
p227
aS'1993-07-14'
p228
aS'1993-07-15'
p229
aS'1993-07-16'
p230
aS'1993-07-19'
p231
aS'1993-07-20'
p232
aS'1993-07-21'
p233
aS'1993-07-22'
p234
aS'1993-07-23'
p235
aS'1993-07-26'
p236
aS'1993-07-27'
p237
aS'1993-07-28'
p238
aS'1993-07-29'
p239
aS'1993-07-30'
p240
aS'1993-08-02'
p241
aS'1993-08-03'
p242
aS'1993-08-04'
p243
aS'1993-08-05'
p244
aS'1993-08-06'
p245
aS'1993-08-09'
p246
aS'1993-08-10'
p247
aS'1993-08-11'
p248
aS'1993-08-12'
p249
aS'1993-08-13'
p250
aS'1993-08-16'
p251
aS'1993-08-17'
p252
aS'1993-08-18'
p253
aS'1993-08-19'
p254
aS'1993-08-20'
p255
aS'1993-08-23'
p256
aS'1993-08-24'
p257
aS'1993-08-25'
p258
aS'1993-08-26'
p259
aS'1993-08-27'
p260
aS'1993-08-30'
p261
aS'1993-08-31'
p262
aS'1993-09-01'
p263
aS'1993-09-02'
p264
aS'1993-09-03'
p265
aS'1993-09-07'
p266
aS'1993-09-08'
p267
aS'1993-09-09'
p268
aS'1993-09-10'
p269
aS'1993-09-13'
p270
aS'1993-09-14'
p271
aS'1993-09-15'
p272
aS'1993-09-16'
p273
aS'1993-09-17'
p274
aS'1993-09-20'
p275
aS'1993-09-21'
p276
aS'1993-09-22'
p277
aS'1993-09-23'
p278
aS'1993-09-24'
p279
aS'1993-09-27'
p280
aS'1993-09-28'
p281
aS'1993-09-29'
p282
aS'1993-09-30'
p283
aS'1993-10-01'
p284
aS'1993-10-04'
p285
aS'1993-10-05'
p286
aS'1993-10-06'
p287
aS'1993-10-07'
p288
aS'1993-10-08'
p289
aS'1993-10-11'
p290
aS'1993-10-12'
p291
aS'1993-10-13'
p292
aS'1993-10-14'
p293
aS'1993-10-15'
p294
aS'1993-10-18'
p295
aS'1993-10-19'
p296
aS'1993-10-20'
p297
aS'1993-10-21'
p298
aS'1993-10-22'
p299
aS'1993-10-25'
p300
aS'1993-10-26'
p301
aS'1993-10-27'
p302
aS'1993-10-28'
p303
aS'1993-10-29'
p304
aS'1993-11-01'
p305
aS'1993-11-02'
p306
aS'1993-11-03'
p307
aS'1993-11-04'
p308
aS'1993-11-05'
p309
aS'1993-11-08'
p310
aS'1993-11-09'
p311
aS'1993-11-10'
p312
aS'1993-11-11'
p313
aS'1993-11-12'
p314
aS'1993-11-15'
p315
aS'1993-11-16'
p316
aS'1993-11-17'
p317
aS'1993-11-18'
p318
aS'1993-11-19'
p319
aS'1993-11-22'
p320
aS'1993-11-23'
p321
aS'1993-11-24'
p322
aS'1993-11-26'
p323
aS'1993-11-29'
p324
aS'1993-11-30'
p325
aS'1993-12-01'
p326
aS'1993-12-02'
p327
aS'1993-12-03'
p328
aS'1993-12-06'
p329
aS'1993-12-07'
p330
aS'1993-12-08'
p331
aS'1993-12-09'
p332
aS'1993-12-10'
p333
aS'1993-12-13'
p334
aS'1993-12-14'
p335
aS'1993-12-15'
p336
aS'1993-12-16'
p337
aS'1993-12-17'
p338
aS'1993-12-20'
p339
aS'1993-12-21'
p340
aS'1993-12-22'
p341
aS'1993-12-23'
p342
aS'1993-12-27'
p343
aS'1993-12-28'
p344
aS'1993-12-29'
p345
aS'1993-12-30'
p346
aS'1993-12-31'
p347
aS'1994-01-03'
p348
aS'1994-01-04'
p349
aS'1994-01-05'
p350
aS'1994-01-06'
p351
aS'1994-01-07'
p352
aS'1994-01-10'
p353
aS'1994-01-11'
p354
aS'1994-01-12'
p355
aS'1994-01-13'
p356
aS'1994-01-14'
p357
aS'1994-01-17'
p358
aS'1994-01-18'
p359
aS'1994-01-19'
p360
aS'1994-01-20'
p361
aS'1994-01-21'
p362
aS'1994-01-24'
p363
aS'1994-01-25'
p364
aS'1994-01-26'
p365
aS'1994-01-27'
p366
aS'1994-01-28'
p367
aS'1994-01-31'
p368
aS'1994-02-01'
p369
aS'1994-02-02'
p370
aS'1994-02-03'
p371
aS'1994-02-04'
p372
aS'1994-02-07'
p373
aS'1994-02-08'
p374
aS'1994-02-09'
p375
aS'1994-02-10'
p376
aS'1994-02-11'
p377
aS'1994-02-14'
p378
aS'1994-02-15'
p379
aS'1994-02-16'
p380
aS'1994-02-17'
p381
aS'1994-02-18'
p382
aS'1994-02-22'
p383
aS'1994-02-23'
p384
aS'1994-02-24'
p385
aS'1994-02-25'
p386
aS'1994-02-28'
p387
aS'1994-03-01'
p388
aS'1994-03-02'
p389
aS'1994-03-03'
p390
aS'1994-03-04'
p391
aS'1994-03-07'
p392
aS'1994-03-08'
p393
aS'1994-03-09'
p394
aS'1994-03-10'
p395
aS'1994-03-11'
p396
aS'1994-03-14'
p397
aS'1994-03-15'
p398
aS'1994-03-16'
p399
aS'1994-03-17'
p400
aS'1994-03-18'
p401
aS'1994-03-21'
p402
aS'1994-03-22'
p403
aS'1994-03-23'
p404
aS'1994-03-24'
p405
aS'1994-03-25'
p406
aS'1994-03-28'
p407
aS'1994-03-29'
p408
aS'1994-03-30'
p409
aS'1994-03-31'
p410
aS'1994-04-04'
p411
aS'1994-04-05'
p412
aS'1994-04-06'
p413
aS'1994-04-07'
p414
aS'1994-04-08'
p415
aS'1994-04-11'
p416
aS'1994-04-12'
p417
aS'1994-04-13'
p418
aS'1994-04-14'
p419
aS'1994-04-15'
p420
aS'1994-04-18'
p421
aS'1994-04-19'
p422
aS'1994-04-20'
p423
aS'1994-04-21'
p424
aS'1994-04-22'
p425
aS'1994-04-25'
p426
aS'1994-04-26'
p427
aS'1994-04-28'
p428
aS'1994-04-29'
p429
aS'1994-05-02'
p430
aS'1994-05-03'
p431
aS'1994-05-04'
p432
aS'1994-05-05'
p433
aS'1994-05-06'
p434
aS'1994-05-09'
p435
aS'1994-05-10'
p436
aS'1994-05-11'
p437
aS'1994-05-12'
p438
aS'1994-05-13'
p439
aS'1994-05-16'
p440
aS'1994-05-17'
p441
aS'1994-05-18'
p442
aS'1994-05-19'
p443
aS'1994-05-20'
p444
aS'1994-05-23'
p445
aS'1994-05-24'
p446
aS'1994-05-25'
p447
aS'1994-05-26'
p448
aS'1994-05-27'
p449
aS'1994-05-31'
p450
aS'1994-06-01'
p451
aS'1994-06-02'
p452
aS'1994-06-03'
p453
aS'1994-06-06'
p454
aS'1994-06-07'
p455
aS'1994-06-08'
p456
aS'1994-06-09'
p457
aS'1994-06-10'
p458
aS'1994-06-13'
p459
aS'1994-06-14'
p460
aS'1994-06-15'
p461
aS'1994-06-16'
p462
aS'1994-06-17'
p463
aS'1994-06-20'
p464
aS'1994-06-21'
p465
aS'1994-06-22'
p466
aS'1994-06-23'
p467
aS'1994-06-24'
p468
aS'1994-06-27'
p469
aS'1994-06-28'
p470
aS'1994-06-29'
p471
aS'1994-06-30'
p472
aS'1994-07-01'
p473
aS'1994-07-05'
p474
aS'1994-07-06'
p475
aS'1994-07-07'
p476
aS'1994-07-08'
p477
aS'1994-07-11'
p478
aS'1994-07-12'
p479
aS'1994-07-13'
p480
aS'1994-07-14'
p481
aS'1994-07-15'
p482
aS'1994-07-18'
p483
aS'1994-07-19'
p484
aS'1994-07-20'
p485
aS'1994-07-21'
p486
aS'1994-07-22'
p487
aS'1994-07-25'
p488
aS'1994-07-26'
p489
aS'1994-07-27'
p490
aS'1994-07-28'
p491
aS'1994-07-29'
p492
aS'1994-08-01'
p493
aS'1994-08-02'
p494
aS'1994-08-03'
p495
aS'1994-08-04'
p496
aS'1994-08-05'
p497
aS'1994-08-08'
p498
aS'1994-08-09'
p499
aS'1994-08-10'
p500
aS'1994-08-11'
p501
aS'1994-08-12'
p502
aS'1994-08-15'
p503
aS'1994-08-16'
p504
aS'1994-08-17'
p505
aS'1994-08-18'
p506
aS'1994-08-19'
p507
aS'1994-08-22'
p508
aS'1994-08-23'
p509
aS'1994-08-24'
p510
aS'1994-08-25'
p511
aS'1994-08-26'
p512
aS'1994-08-29'
p513
aS'1994-08-30'
p514
aS'1994-08-31'
p515
aS'1994-09-01'
p516
aS'1994-09-02'
p517
aS'1994-09-06'
p518
aS'1994-09-07'
p519
aS'1994-09-08'
p520
aS'1994-09-09'
p521
aS'1994-09-12'
p522
aS'1994-09-13'
p523
aS'1994-09-14'
p524
aS'1994-09-15'
p525
aS'1994-09-16'
p526
aS'1994-09-19'
p527
aS'1994-09-20'
p528
aS'1994-09-21'
p529
aS'1994-09-22'
p530
aS'1994-09-23'
p531
aS'1994-09-26'
p532
aS'1994-09-27'
p533
aS'1994-09-28'
p534
aS'1994-09-29'
p535
aS'1994-09-30'
p536
aS'1994-10-03'
p537
aS'1994-10-04'
p538
aS'1994-10-05'
p539
aS'1994-10-06'
p540
aS'1994-10-07'
p541
aS'1994-10-10'
p542
aS'1994-10-11'
p543
aS'1994-10-12'
p544
aS'1994-10-13'
p545
aS'1994-10-14'
p546
aS'1994-10-17'
p547
aS'1994-10-18'
p548
aS'1994-10-19'
p549
aS'1994-10-20'
p550
aS'1994-10-21'
p551
aS'1994-10-24'
p552
aS'1994-10-25'
p553
aS'1994-10-26'
p554
aS'1994-10-27'
p555
aS'1994-10-28'
p556
aS'1994-10-31'
p557
aS'1994-11-01'
p558
aS'1994-11-02'
p559
aS'1994-11-03'
p560
aS'1994-11-04'
p561
aS'1994-11-07'
p562
aS'1994-11-08'
p563
aS'1994-11-09'
p564
aS'1994-11-10'
p565
aS'1994-11-11'
p566
aS'1994-11-14'
p567
aS'1994-11-15'
p568
aS'1994-11-16'
p569
aS'1994-11-17'
p570
aS'1994-11-18'
p571
aS'1994-11-21'
p572
aS'1994-11-22'
p573
aS'1994-11-23'
p574
aS'1994-11-25'
p575
aS'1994-11-28'
p576
aS'1994-11-29'
p577
aS'1994-11-30'
p578
aS'1994-12-01'
p579
aS'1994-12-02'
p580
aS'1994-12-05'
p581
aS'1994-12-06'
p582
aS'1994-12-07'
p583
aS'1994-12-08'
p584
aS'1994-12-09'
p585
aS'1994-12-12'
p586
aS'1994-12-13'
p587
aS'1994-12-14'
p588
aS'1994-12-15'
p589
aS'1994-12-16'
p590
aS'1994-12-19'
p591
aS'1994-12-20'
p592
aS'1994-12-21'
p593
aS'1994-12-22'
p594
aS'1994-12-23'
p595
aS'1994-12-27'
p596
aS'1994-12-28'
p597
aS'1994-12-29'
p598
aS'1994-12-30'
p599
aS'1995-01-03'
p600
aS'1995-01-04'
p601
aS'1995-01-05'
p602
aS'1995-01-06'
p603
aS'1995-01-09'
p604
aS'1995-01-10'
p605
aS'1995-01-11'
p606
aS'1995-01-12'
p607
aS'1995-01-13'
p608
aS'1995-01-16'
p609
aS'1995-01-17'
p610
aS'1995-01-18'
p611
aS'1995-01-19'
p612
aS'1995-01-20'
p613
aS'1995-01-23'
p614
aS'1995-01-24'
p615
aS'1995-01-25'
p616
aS'1995-01-26'
p617
aS'1995-01-27'
p618
aS'1995-01-30'
p619
aS'1995-01-31'
p620
aS'1995-02-01'
p621
aS'1995-02-02'
p622
aS'1995-02-03'
p623
aS'1995-02-06'
p624
aS'1995-02-07'
p625
aS'1995-02-08'
p626
aS'1995-02-09'
p627
aS'1995-02-10'
p628
aS'1995-02-13'
p629
aS'1995-02-14'
p630
aS'1995-02-15'
p631
aS'1995-02-16'
p632
aS'1995-02-17'
p633
aS'1995-02-21'
p634
aS'1995-02-22'
p635
aS'1995-02-23'
p636
aS'1995-02-24'
p637
aS'1995-02-27'
p638
aS'1995-02-28'
p639
aS'1995-03-01'
p640
aS'1995-03-02'
p641
aS'1995-03-03'
p642
aS'1995-03-06'
p643
aS'1995-03-07'
p644
aS'1995-03-08'
p645
aS'1995-03-09'
p646
aS'1995-03-10'
p647
aS'1995-03-13'
p648
aS'1995-03-14'
p649
aS'1995-03-15'
p650
aS'1995-03-16'
p651
aS'1995-03-17'
p652
aS'1995-03-20'
p653
aS'1995-03-21'
p654
aS'1995-03-22'
p655
aS'1995-03-23'
p656
aS'1995-03-24'
p657
aS'1995-03-27'
p658
aS'1995-03-28'
p659
aS'1995-03-29'
p660
aS'1995-03-30'
p661
aS'1995-03-31'
p662
aS'1995-04-03'
p663
aS'1995-04-04'
p664
aS'1995-04-05'
p665
aS'1995-04-06'
p666
aS'1995-04-07'
p667
aS'1995-04-10'
p668
aS'1995-04-11'
p669
aS'1995-04-12'
p670
aS'1995-04-13'
p671
aS'1995-04-17'
p672
aS'1995-04-18'
p673
aS'1995-04-19'
p674
aS'1995-04-20'
p675
aS'1995-04-21'
p676
aS'1995-04-24'
p677
aS'1995-04-25'
p678
aS'1995-04-26'
p679
aS'1995-04-27'
p680
aS'1995-04-28'
p681
aS'1995-05-01'
p682
aS'1995-05-02'
p683
aS'1995-05-03'
p684
aS'1995-05-04'
p685
aS'1995-05-05'
p686
aS'1995-05-08'
p687
aS'1995-05-09'
p688
aS'1995-05-10'
p689
aS'1995-05-11'
p690
aS'1995-05-12'
p691
aS'1995-05-15'
p692
aS'1995-05-16'
p693
aS'1995-05-17'
p694
aS'1995-05-18'
p695
aS'1995-05-19'
p696
aS'1995-05-22'
p697
aS'1995-05-23'
p698
aS'1995-05-24'
p699
aS'1995-05-25'
p700
aS'1995-05-26'
p701
aS'1995-05-30'
p702
aS'1995-05-31'
p703
aS'1995-06-01'
p704
aS'1995-06-02'
p705
aS'1995-06-05'
p706
aS'1995-06-06'
p707
aS'1995-06-07'
p708
aS'1995-06-08'
p709
aS'1995-06-09'
p710
aS'1995-06-12'
p711
aS'1995-06-13'
p712
aS'1995-06-14'
p713
aS'1995-06-15'
p714
aS'1995-06-16'
p715
aS'1995-06-19'
p716
aS'1995-06-20'
p717
aS'1995-06-21'
p718
aS'1995-06-22'
p719
aS'1995-06-23'
p720
aS'1995-06-26'
p721
aS'1995-06-27'
p722
aS'1995-06-28'
p723
aS'1995-06-29'
p724
aS'1995-06-30'
p725
aS'1995-07-03'
p726
aS'1995-07-05'
p727
aS'1995-07-06'
p728
aS'1995-07-07'
p729
aS'1995-07-10'
p730
aS'1995-07-11'
p731
aS'1995-07-12'
p732
aS'1995-07-13'
p733
aS'1995-07-14'
p734
aS'1995-07-17'
p735
aS'1995-07-18'
p736
aS'1995-07-19'
p737
aS'1995-07-20'
p738
aS'1995-07-21'
p739
aS'1995-07-24'
p740
aS'1995-07-25'
p741
aS'1995-07-26'
p742
aS'1995-07-27'
p743
aS'1995-07-28'
p744
aS'1995-07-31'
p745
aS'1995-08-01'
p746
aS'1995-08-02'
p747
aS'1995-08-03'
p748
aS'1995-08-04'
p749
aS'1995-08-07'
p750
aS'1995-08-08'
p751
aS'1995-08-09'
p752
aS'1995-08-10'
p753
aS'1995-08-11'
p754
aS'1995-08-14'
p755
aS'1995-08-15'
p756
aS'1995-08-16'
p757
aS'1995-08-17'
p758
aS'1995-08-18'
p759
aS'1995-08-21'
p760
aS'1995-08-22'
p761
aS'1995-08-23'
p762
aS'1995-08-24'
p763
aS'1995-08-25'
p764
aS'1995-08-28'
p765
aS'1995-08-29'
p766
aS'1995-08-30'
p767
aS'1995-08-31'
p768
aS'1995-09-01'
p769
aS'1995-09-05'
p770
aS'1995-09-06'
p771
aS'1995-09-07'
p772
aS'1995-09-08'
p773
aS'1995-09-11'
p774
aS'1995-09-12'
p775
aS'1995-09-13'
p776
aS'1995-09-14'
p777
aS'1995-09-15'
p778
aS'1995-09-18'
p779
aS'1995-09-19'
p780
aS'1995-09-20'
p781
aS'1995-09-21'
p782
aS'1995-09-22'
p783
aS'1995-09-25'
p784
aS'1995-09-26'
p785
aS'1995-09-27'
p786
aS'1995-09-28'
p787
aS'1995-09-29'
p788
aS'1995-10-02'
p789
aS'1995-10-03'
p790
aS'1995-10-04'
p791
aS'1995-10-05'
p792
aS'1995-10-06'
p793
aS'1995-10-09'
p794
aS'1995-10-10'
p795
aS'1995-10-11'
p796
aS'1995-10-12'
p797
aS'1995-10-13'
p798
aS'1995-10-16'
p799
aS'1995-10-17'
p800
aS'1995-10-18'
p801
aS'1995-10-19'
p802
aS'1995-10-20'
p803
aS'1995-10-23'
p804
aS'1995-10-24'
p805
aS'1995-10-25'
p806
aS'1995-10-26'
p807
aS'1995-10-27'
p808
aS'1995-10-30'
p809
aS'1995-10-31'
p810
aS'1995-11-01'
p811
aS'1995-11-02'
p812
aS'1995-11-03'
p813
aS'1995-11-06'
p814
aS'1995-11-07'
p815
aS'1995-11-08'
p816
aS'1995-11-09'
p817
aS'1995-11-10'
p818
aS'1995-11-13'
p819
aS'1995-11-14'
p820
aS'1995-11-15'
p821
aS'1995-11-16'
p822
aS'1995-11-17'
p823
aS'1995-11-20'
p824
aS'1995-11-21'
p825
aS'1995-11-22'
p826
aS'1995-11-24'
p827
aS'1995-11-27'
p828
aS'1995-11-28'
p829
aS'1995-11-29'
p830
aS'1995-11-30'
p831
aS'1995-12-01'
p832
aS'1995-12-04'
p833
aS'1995-12-05'
p834
aS'1995-12-06'
p835
aS'1995-12-07'
p836
aS'1995-12-08'
p837
aS'1995-12-11'
p838
aS'1995-12-12'
p839
aS'1995-12-13'
p840
aS'1995-12-14'
p841
aS'1995-12-15'
p842
aS'1995-12-18'
p843
aS'1995-12-19'
p844
aS'1995-12-20'
p845
aS'1995-12-21'
p846
aS'1995-12-22'
p847
aS'1995-12-26'
p848
aS'1995-12-27'
p849
aS'1995-12-28'
p850
aS'1995-12-29'
p851
aS'1996-01-02'
p852
aS'1996-01-03'
p853
aS'1996-01-04'
p854
aS'1996-01-05'
p855
aS'1996-01-08'
p856
aS'1996-01-09'
p857
aS'1996-01-10'
p858
aS'1996-01-11'
p859
aS'1996-01-12'
p860
aS'1996-01-15'
p861
aS'1996-01-16'
p862
aS'1996-01-17'
p863
aS'1996-01-18'
p864
aS'1996-01-19'
p865
aS'1996-01-22'
p866
aS'1996-01-23'
p867
aS'1996-01-24'
p868
aS'1996-01-25'
p869
aS'1996-01-26'
p870
aS'1996-01-29'
p871
aS'1996-01-30'
p872
aS'1996-01-31'
p873
aS'1996-02-01'
p874
aS'1996-02-02'
p875
aS'1996-02-05'
p876
aS'1996-02-06'
p877
aS'1996-02-07'
p878
aS'1996-02-08'
p879
aS'1996-02-09'
p880
aS'1996-02-12'
p881
aS'1996-02-13'
p882
aS'1996-02-14'
p883
aS'1996-02-15'
p884
aS'1996-02-16'
p885
aS'1996-02-20'
p886
aS'1996-02-21'
p887
aS'1996-02-22'
p888
aS'1996-02-23'
p889
aS'1996-02-26'
p890
aS'1996-02-27'
p891
aS'1996-02-28'
p892
aS'1996-02-29'
p893
aS'1996-03-01'
p894
aS'1996-03-04'
p895
aS'1996-03-05'
p896
aS'1996-03-06'
p897
aS'1996-03-07'
p898
aS'1996-03-08'
p899
aS'1996-03-11'
p900
aS'1996-03-12'
p901
aS'1996-03-13'
p902
aS'1996-03-14'
p903
aS'1996-03-15'
p904
aS'1996-03-18'
p905
aS'1996-03-19'
p906
aS'1996-03-20'
p907
aS'1996-03-21'
p908
aS'1996-03-22'
p909
aS'1996-03-25'
p910
aS'1996-03-26'
p911
aS'1996-03-27'
p912
aS'1996-03-28'
p913
aS'1996-03-29'
p914
aS'1996-04-01'
p915
aS'1996-04-02'
p916
aS'1996-04-03'
p917
aS'1996-04-04'
p918
aS'1996-04-08'
p919
aS'1996-04-09'
p920
aS'1996-04-10'
p921
aS'1996-04-11'
p922
aS'1996-04-12'
p923
aS'1996-04-15'
p924
aS'1996-04-16'
p925
aS'1996-04-17'
p926
aS'1996-04-18'
p927
aS'1996-04-19'
p928
aS'1996-04-22'
p929
aS'1996-04-23'
p930
aS'1996-04-24'
p931
aS'1996-04-25'
p932
aS'1996-04-26'
p933
aS'1996-04-29'
p934
aS'1996-04-30'
p935
aS'1996-05-01'
p936
aS'1996-05-02'
p937
aS'1996-05-03'
p938
aS'1996-05-06'
p939
aS'1996-05-07'
p940
aS'1996-05-08'
p941
aS'1996-05-09'
p942
aS'1996-05-10'
p943
aS'1996-05-13'
p944
aS'1996-05-14'
p945
aS'1996-05-15'
p946
aS'1996-05-16'
p947
aS'1996-05-17'
p948
aS'1996-05-20'
p949
aS'1996-05-21'
p950
aS'1996-05-22'
p951
aS'1996-05-23'
p952
aS'1996-05-24'
p953
aS'1996-05-28'
p954
aS'1996-05-29'
p955
aS'1996-05-30'
p956
aS'1996-05-31'
p957
aS'1996-06-03'
p958
aS'1996-06-04'
p959
aS'1996-06-05'
p960
aS'1996-06-06'
p961
aS'1996-06-07'
p962
aS'1996-06-10'
p963
aS'1996-06-11'
p964
aS'1996-06-12'
p965
aS'1996-06-13'
p966
aS'1996-06-14'
p967
aS'1996-06-17'
p968
aS'1996-06-18'
p969
aS'1996-06-19'
p970
aS'1996-06-20'
p971
aS'1996-06-21'
p972
aS'1996-06-24'
p973
aS'1996-06-25'
p974
aS'1996-06-26'
p975
aS'1996-06-27'
p976
aS'1996-06-28'
p977
aS'1996-07-01'
p978
aS'1996-07-02'
p979
aS'1996-07-03'
p980
aS'1996-07-05'
p981
aS'1996-07-08'
p982
aS'1996-07-09'
p983
aS'1996-07-10'
p984
aS'1996-07-11'
p985
aS'1996-07-12'
p986
aS'1996-07-15'
p987
aS'1996-07-16'
p988
aS'1996-07-17'
p989
aS'1996-07-18'
p990
aS'1996-07-19'
p991
aS'1996-07-22'
p992
aS'1996-07-23'
p993
aS'1996-07-24'
p994
aS'1996-07-25'
p995
aS'1996-07-26'
p996
aS'1996-07-29'
p997
aS'1996-07-30'
p998
aS'1996-07-31'
p999
aS'1996-08-01'
p1000
aS'1996-08-02'
p1001
aS'1996-08-05'
p1002
aS'1996-08-06'
p1003
aS'1996-08-07'
p1004
aS'1996-08-08'
p1005
aS'1996-08-09'
p1006
aS'1996-08-12'
p1007
aS'1996-08-13'
p1008
aS'1996-08-14'
p1009
aS'1996-08-15'
p1010
aS'1996-08-16'
p1011
aS'1996-08-19'
p1012
aS'1996-08-20'
p1013
aS'1996-08-21'
p1014
aS'1996-08-22'
p1015
aS'1996-08-23'
p1016
aS'1996-08-26'
p1017
aS'1996-08-27'
p1018
aS'1996-08-28'
p1019
aS'1996-08-29'
p1020
aS'1996-08-30'
p1021
aS'1996-09-03'
p1022
aS'1996-09-04'
p1023
aS'1996-09-05'
p1024
aS'1996-09-06'
p1025
aS'1996-09-09'
p1026
aS'1996-09-10'
p1027
aS'1996-09-11'
p1028
aS'1996-09-12'
p1029
aS'1996-09-13'
p1030
aS'1996-09-16'
p1031
aS'1996-09-17'
p1032
aS'1996-09-18'
p1033
aS'1996-09-19'
p1034
aS'1996-09-20'
p1035
aS'1996-09-23'
p1036
aS'1996-09-24'
p1037
aS'1996-09-25'
p1038
aS'1996-09-26'
p1039
aS'1996-09-27'
p1040
aS'1996-09-30'
p1041
aS'1996-10-01'
p1042
aS'1996-10-02'
p1043
aS'1996-10-03'
p1044
aS'1996-10-04'
p1045
aS'1996-10-07'
p1046
aS'1996-10-08'
p1047
aS'1996-10-09'
p1048
aS'1996-10-10'
p1049
aS'1996-10-11'
p1050
aS'1996-10-14'
p1051
aS'1996-10-15'
p1052
aS'1996-10-16'
p1053
aS'1996-10-17'
p1054
aS'1996-10-18'
p1055
aS'1996-10-21'
p1056
aS'1996-10-22'
p1057
aS'1996-10-23'
p1058
aS'1996-10-24'
p1059
aS'1996-10-25'
p1060
aS'1996-10-28'
p1061
aS'1996-10-29'
p1062
aS'1996-10-30'
p1063
aS'1996-10-31'
p1064
aS'1996-11-01'
p1065
aS'1996-11-04'
p1066
aS'1996-11-05'
p1067
aS'1996-11-06'
p1068
aS'1996-11-07'
p1069
aS'1996-11-08'
p1070
aS'1996-11-11'
p1071
aS'1996-11-12'
p1072
aS'1996-11-13'
p1073
aS'1996-11-14'
p1074
aS'1996-11-15'
p1075
aS'1996-11-18'
p1076
aS'1996-11-19'
p1077
aS'1996-11-20'
p1078
aS'1996-11-21'
p1079
aS'1996-11-22'
p1080
aS'1996-11-25'
p1081
aS'1996-11-26'
p1082
aS'1996-11-27'
p1083
aS'1996-11-29'
p1084
aS'1996-12-02'
p1085
aS'1996-12-03'
p1086
aS'1996-12-04'
p1087
aS'1996-12-05'
p1088
aS'1996-12-06'
p1089
aS'1996-12-09'
p1090
aS'1996-12-10'
p1091
aS'1996-12-11'
p1092
aS'1996-12-12'
p1093
aS'1996-12-13'
p1094
aS'1996-12-16'
p1095
aS'1996-12-17'
p1096
aS'1996-12-18'
p1097
aS'1996-12-19'
p1098
aS'1996-12-20'
p1099
aS'1996-12-23'
p1100
aS'1996-12-24'
p1101
aS'1996-12-26'
p1102
aS'1996-12-27'
p1103
aS'1996-12-30'
p1104
aS'1996-12-31'
p1105
aS'1997-01-02'
p1106
aS'1997-01-03'
p1107
aS'1997-01-06'
p1108
aS'1997-01-07'
p1109
aS'1997-01-08'
p1110
aS'1997-01-09'
p1111
aS'1997-01-10'
p1112
aS'1997-01-13'
p1113
aS'1997-01-14'
p1114
aS'1997-01-15'
p1115
aS'1997-01-16'
p1116
aS'1997-01-17'
p1117
aS'1997-01-20'
p1118
aS'1997-01-21'
p1119
aS'1997-01-22'
p1120
aS'1997-01-23'
p1121
aS'1997-01-24'
p1122
aS'1997-01-27'
p1123
aS'1997-01-28'
p1124
aS'1997-01-29'
p1125
aS'1997-01-30'
p1126
aS'1997-01-31'
p1127
aS'1997-02-03'
p1128
aS'1997-02-04'
p1129
aS'1997-02-05'
p1130
aS'1997-02-06'
p1131
aS'1997-02-07'
p1132
aS'1997-02-10'
p1133
aS'1997-02-11'
p1134
aS'1997-02-12'
p1135
aS'1997-02-13'
p1136
aS'1997-02-14'
p1137
aS'1997-02-18'
p1138
aS'1997-02-19'
p1139
aS'1997-02-20'
p1140
aS'1997-02-21'
p1141
aS'1997-02-24'
p1142
aS'1997-02-25'
p1143
aS'1997-02-26'
p1144
aS'1997-02-27'
p1145
aS'1997-02-28'
p1146
aS'1997-03-03'
p1147
aS'1997-03-04'
p1148
aS'1997-03-05'
p1149
aS'1997-03-06'
p1150
aS'1997-03-07'
p1151
aS'1997-03-10'
p1152
aS'1997-03-11'
p1153
aS'1997-03-12'
p1154
aS'1997-03-13'
p1155
aS'1997-03-14'
p1156
aS'1997-03-17'
p1157
aS'1997-03-18'
p1158
aS'1997-03-19'
p1159
aS'1997-03-20'
p1160
aS'1997-03-21'
p1161
aS'1997-03-24'
p1162
aS'1997-03-25'
p1163
aS'1997-03-26'
p1164
aS'1997-03-27'
p1165
aS'1997-03-31'
p1166
aS'1997-04-01'
p1167
aS'1997-04-02'
p1168
aS'1997-04-03'
p1169
aS'1997-04-04'
p1170
aS'1997-04-07'
p1171
aS'1997-04-08'
p1172
aS'1997-04-09'
p1173
aS'1997-04-10'
p1174
aS'1997-04-11'
p1175
aS'1997-04-14'
p1176
aS'1997-04-15'
p1177
aS'1997-04-16'
p1178
aS'1997-04-17'
p1179
aS'1997-04-18'
p1180
aS'1997-04-21'
p1181
aS'1997-04-22'
p1182
aS'1997-04-23'
p1183
aS'1997-04-24'
p1184
aS'1997-04-25'
p1185
aS'1997-04-28'
p1186
aS'1997-04-29'
p1187
aS'1997-04-30'
p1188
aS'1997-05-01'
p1189
aS'1997-05-02'
p1190
aS'1997-05-05'
p1191
aS'1997-05-06'
p1192
aS'1997-05-07'
p1193
aS'1997-05-08'
p1194
aS'1997-05-09'
p1195
aS'1997-05-12'
p1196
aS'1997-05-13'
p1197
aS'1997-05-14'
p1198
aS'1997-05-15'
p1199
aS'1997-05-16'
p1200
aS'1997-05-19'
p1201
aS'1997-05-20'
p1202
aS'1997-05-21'
p1203
aS'1997-05-22'
p1204
aS'1997-05-23'
p1205
aS'1997-05-27'
p1206
aS'1997-05-28'
p1207
aS'1997-05-29'
p1208
aS'1997-05-30'
p1209
aS'1997-06-02'
p1210
aS'1997-06-03'
p1211
aS'1997-06-04'
p1212
aS'1997-06-05'
p1213
aS'1997-06-06'
p1214
aS'1997-06-09'
p1215
aS'1997-06-10'
p1216
aS'1997-06-11'
p1217
aS'1997-06-12'
p1218
aS'1997-06-13'
p1219
aS'1997-06-16'
p1220
aS'1997-06-17'
p1221
aS'1997-06-18'
p1222
aS'1997-06-19'
p1223
aS'1997-06-20'
p1224
aS'1997-06-23'
p1225
aS'1997-06-24'
p1226
aS'1997-06-25'
p1227
aS'1997-06-26'
p1228
aS'1997-06-27'
p1229
aS'1997-06-30'
p1230
aS'1997-07-01'
p1231
aS'1997-07-02'
p1232
aS'1997-07-03'
p1233
aS'1997-07-07'
p1234
aS'1997-07-08'
p1235
aS'1997-07-09'
p1236
aS'1997-07-10'
p1237
aS'1997-07-11'
p1238
aS'1997-07-14'
p1239
aS'1997-07-15'
p1240
aS'1997-07-16'
p1241
aS'1997-07-17'
p1242
aS'1997-07-18'
p1243
aS'1997-07-21'
p1244
aS'1997-07-22'
p1245
aS'1997-07-23'
p1246
aS'1997-07-24'
p1247
aS'1997-07-25'
p1248
aS'1997-07-28'
p1249
aS'1997-07-29'
p1250
aS'1997-07-30'
p1251
aS'1997-07-31'
p1252
aS'1997-08-01'
p1253
aS'1997-08-04'
p1254
aS'1997-08-05'
p1255
aS'1997-08-06'
p1256
aS'1997-08-07'
p1257
aS'1997-08-08'
p1258
aS'1997-08-11'
p1259
aS'1997-08-12'
p1260
aS'1997-08-13'
p1261
aS'1997-08-14'
p1262
aS'1997-08-15'
p1263
aS'1997-08-18'
p1264
aS'1997-08-19'
p1265
aS'1997-08-20'
p1266
aS'1997-08-21'
p1267
aS'1997-08-22'
p1268
aS'1997-08-25'
p1269
aS'1997-08-26'
p1270
aS'1997-08-27'
p1271
aS'1997-08-28'
p1272
aS'1997-08-29'
p1273
aS'1997-09-02'
p1274
aS'1997-09-03'
p1275
aS'1997-09-04'
p1276
aS'1997-09-05'
p1277
aS'1997-09-08'
p1278
aS'1997-09-09'
p1279
aS'1997-09-10'
p1280
aS'1997-09-11'
p1281
aS'1997-09-12'
p1282
aS'1997-09-15'
p1283
aS'1997-09-16'
p1284
aS'1997-09-17'
p1285
aS'1997-09-18'
p1286
aS'1997-09-19'
p1287
aS'1997-09-22'
p1288
aS'1997-09-23'
p1289
aS'1997-09-24'
p1290
aS'1997-09-25'
p1291
aS'1997-09-26'
p1292
aS'1997-09-29'
p1293
aS'1997-09-30'
p1294
aS'1997-10-01'
p1295
aS'1997-10-02'
p1296
aS'1997-10-03'
p1297
aS'1997-10-06'
p1298
aS'1997-10-07'
p1299
aS'1997-10-08'
p1300
aS'1997-10-09'
p1301
aS'1997-10-10'
p1302
aS'1997-10-13'
p1303
aS'1997-10-14'
p1304
aS'1997-10-15'
p1305
aS'1997-10-16'
p1306
aS'1997-10-17'
p1307
aS'1997-10-20'
p1308
aS'1997-10-21'
p1309
aS'1997-10-22'
p1310
aS'1997-10-23'
p1311
aS'1997-10-24'
p1312
aS'1997-10-27'
p1313
aS'1997-10-28'
p1314
aS'1997-10-29'
p1315
aS'1997-10-30'
p1316
aS'1997-10-31'
p1317
aS'1997-11-03'
p1318
aS'1997-11-04'
p1319
aS'1997-11-05'
p1320
aS'1997-11-06'
p1321
aS'1997-11-07'
p1322
aS'1997-11-10'
p1323
aS'1997-11-11'
p1324
aS'1997-11-12'
p1325
aS'1997-11-13'
p1326
aS'1997-11-14'
p1327
aS'1997-11-17'
p1328
aS'1997-11-18'
p1329
aS'1997-11-19'
p1330
aS'1997-11-20'
p1331
aS'1997-11-21'
p1332
aS'1997-11-24'
p1333
aS'1997-11-25'
p1334
aS'1997-11-26'
p1335
aS'1997-11-28'
p1336
aS'1997-12-01'
p1337
aS'1997-12-02'
p1338
aS'1997-12-03'
p1339
aS'1997-12-04'
p1340
aS'1997-12-05'
p1341
aS'1997-12-08'
p1342
aS'1997-12-09'
p1343
aS'1997-12-10'
p1344
aS'1997-12-11'
p1345
aS'1997-12-12'
p1346
aS'1997-12-15'
p1347
aS'1997-12-16'
p1348
aS'1997-12-17'
p1349
aS'1997-12-18'
p1350
aS'1997-12-19'
p1351
aS'1997-12-22'
p1352
aS'1997-12-23'
p1353
aS'1997-12-24'
p1354
aS'1997-12-26'
p1355
aS'1997-12-29'
p1356
aS'1997-12-30'
p1357
aS'1997-12-31'
p1358
aS'1998-01-02'
p1359
aS'1998-01-05'
p1360
aS'1998-01-06'
p1361
aS'1998-01-07'
p1362
aS'1998-01-08'
p1363
aS'1998-01-09'
p1364
aS'1998-01-12'
p1365
aS'1998-01-13'
p1366
aS'1998-01-14'
p1367
aS'1998-01-15'
p1368
aS'1998-01-16'
p1369
aS'1998-01-20'
p1370
aS'1998-01-21'
p1371
aS'1998-01-22'
p1372
aS'1998-01-23'
p1373
aS'1998-01-26'
p1374
aS'1998-01-27'
p1375
aS'1998-01-28'
p1376
aS'1998-01-29'
p1377
aS'1998-01-30'
p1378
aS'1998-02-02'
p1379
aS'1998-02-03'
p1380
aS'1998-02-04'
p1381
aS'1998-02-05'
p1382
aS'1998-02-06'
p1383
aS'1998-02-09'
p1384
aS'1998-02-10'
p1385
aS'1998-02-11'
p1386
aS'1998-02-12'
p1387
aS'1998-02-13'
p1388
aS'1998-02-17'
p1389
aS'1998-02-18'
p1390
aS'1998-02-19'
p1391
aS'1998-02-20'
p1392
aS'1998-02-23'
p1393
aS'1998-02-24'
p1394
aS'1998-02-25'
p1395
aS'1998-02-26'
p1396
aS'1998-02-27'
p1397
aS'1998-03-02'
p1398
aS'1998-03-03'
p1399
aS'1998-03-04'
p1400
aS'1998-03-05'
p1401
aS'1998-03-06'
p1402
aS'1998-03-09'
p1403
aS'1998-03-10'
p1404
aS'1998-03-11'
p1405
aS'1998-03-12'
p1406
aS'1998-03-13'
p1407
aS'1998-03-16'
p1408
aS'1998-03-17'
p1409
aS'1998-03-18'
p1410
aS'1998-03-19'
p1411
aS'1998-03-20'
p1412
aS'1998-03-23'
p1413
aS'1998-03-24'
p1414
aS'1998-03-25'
p1415
aS'1998-03-26'
p1416
aS'1998-03-27'
p1417
aS'1998-03-30'
p1418
aS'1998-03-31'
p1419
aS'1998-04-01'
p1420
aS'1998-04-02'
p1421
aS'1998-04-03'
p1422
aS'1998-04-06'
p1423
aS'1998-04-07'
p1424
aS'1998-04-08'
p1425
aS'1998-04-09'
p1426
aS'1998-04-13'
p1427
aS'1998-04-14'
p1428
aS'1998-04-15'
p1429
aS'1998-04-16'
p1430
aS'1998-04-17'
p1431
aS'1998-04-20'
p1432
aS'1998-04-21'
p1433
aS'1998-04-22'
p1434
aS'1998-04-23'
p1435
aS'1998-04-24'
p1436
aS'1998-04-27'
p1437
aS'1998-04-28'
p1438
aS'1998-04-29'
p1439
aS'1998-04-30'
p1440
aS'1998-05-01'
p1441
aS'1998-05-04'
p1442
aS'1998-05-05'
p1443
aS'1998-05-06'
p1444
aS'1998-05-07'
p1445
aS'1998-05-08'
p1446
aS'1998-05-11'
p1447
aS'1998-05-12'
p1448
aS'1998-05-13'
p1449
aS'1998-05-14'
p1450
aS'1998-05-15'
p1451
aS'1998-05-18'
p1452
aS'1998-05-19'
p1453
aS'1998-05-20'
p1454
aS'1998-05-21'
p1455
aS'1998-05-22'
p1456
aS'1998-05-26'
p1457
aS'1998-05-27'
p1458
aS'1998-05-28'
p1459
aS'1998-05-29'
p1460
aS'1998-06-01'
p1461
aS'1998-06-02'
p1462
aS'1998-06-03'
p1463
aS'1998-06-04'
p1464
aS'1998-06-05'
p1465
aS'1998-06-08'
p1466
aS'1998-06-09'
p1467
aS'1998-06-10'
p1468
aS'1998-06-11'
p1469
aS'1998-06-12'
p1470
aS'1998-06-15'
p1471
aS'1998-06-16'
p1472
aS'1998-06-17'
p1473
aS'1998-06-18'
p1474
aS'1998-06-19'
p1475
aS'1998-06-22'
p1476
aS'1998-06-23'
p1477
aS'1998-06-24'
p1478
aS'1998-06-25'
p1479
aS'1998-06-26'
p1480
aS'1998-06-29'
p1481
aS'1998-06-30'
p1482
aS'1998-07-01'
p1483
aS'1998-07-02'
p1484
aS'1998-07-06'
p1485
aS'1998-07-07'
p1486
aS'1998-07-08'
p1487
aS'1998-07-09'
p1488
aS'1998-07-10'
p1489
aS'1998-07-13'
p1490
aS'1998-07-14'
p1491
aS'1998-07-15'
p1492
aS'1998-07-16'
p1493
aS'1998-07-17'
p1494
aS'1998-07-20'
p1495
aS'1998-07-21'
p1496
aS'1998-07-22'
p1497
aS'1998-07-23'
p1498
aS'1998-07-24'
p1499
aS'1998-07-27'
p1500
aS'1998-07-28'
p1501
aS'1998-07-29'
p1502
aS'1998-07-30'
p1503
aS'1998-07-31'
p1504
aS'1998-08-03'
p1505
aS'1998-08-04'
p1506
aS'1998-08-05'
p1507
aS'1998-08-06'
p1508
aS'1998-08-07'
p1509
aS'1998-08-10'
p1510
aS'1998-08-11'
p1511
aS'1998-08-12'
p1512
aS'1998-08-13'
p1513
aS'1998-08-14'
p1514
aS'1998-08-17'
p1515
aS'1998-08-18'
p1516
aS'1998-08-19'
p1517
aS'1998-08-20'
p1518
aS'1998-08-21'
p1519
aS'1998-08-24'
p1520
aS'1998-08-25'
p1521
aS'1998-08-26'
p1522
aS'1998-08-27'
p1523
aS'1998-08-28'
p1524
aS'1998-08-31'
p1525
aS'1998-09-01'
p1526
aS'1998-09-02'
p1527
aS'1998-09-03'
p1528
aS'1998-09-04'
p1529
aS'1998-09-08'
p1530
aS'1998-09-09'
p1531
aS'1998-09-10'
p1532
aS'1998-09-11'
p1533
aS'1998-09-14'
p1534
aS'1998-09-15'
p1535
aS'1998-09-16'
p1536
aS'1998-09-17'
p1537
aS'1998-09-18'
p1538
aS'1998-09-21'
p1539
aS'1998-09-22'
p1540
aS'1998-09-23'
p1541
aS'1998-09-24'
p1542
aS'1998-09-25'
p1543
aS'1998-09-28'
p1544
aS'1998-09-29'
p1545
aS'1998-09-30'
p1546
aS'1998-10-01'
p1547
aS'1998-10-02'
p1548
aS'1998-10-05'
p1549
aS'1998-10-06'
p1550
aS'1998-10-07'
p1551
aS'1998-10-08'
p1552
aS'1998-10-09'
p1553
aS'1998-10-12'
p1554
aS'1998-10-13'
p1555
aS'1998-10-14'
p1556
aS'1998-10-15'
p1557
aS'1998-10-16'
p1558
aS'1998-10-19'
p1559
aS'1998-10-20'
p1560
aS'1998-10-21'
p1561
aS'1998-10-22'
p1562
aS'1998-10-23'
p1563
aS'1998-10-26'
p1564
aS'1998-10-27'
p1565
aS'1998-10-28'
p1566
aS'1998-10-29'
p1567
aS'1998-10-30'
p1568
aS'1998-11-02'
p1569
aS'1998-11-03'
p1570
aS'1998-11-04'
p1571
aS'1998-11-05'
p1572
aS'1998-11-06'
p1573
aS'1998-11-09'
p1574
aS'1998-11-10'
p1575
aS'1998-11-11'
p1576
aS'1998-11-12'
p1577
aS'1998-11-13'
p1578
aS'1998-11-16'
p1579
aS'1998-11-17'
p1580
aS'1998-11-18'
p1581
aS'1998-11-19'
p1582
aS'1998-11-20'
p1583
aS'1998-11-23'
p1584
aS'1998-11-24'
p1585
aS'1998-11-25'
p1586
aS'1998-11-27'
p1587
aS'1998-11-30'
p1588
aS'1998-12-01'
p1589
aS'1998-12-02'
p1590
aS'1998-12-03'
p1591
aS'1998-12-04'
p1592
aS'1998-12-07'
p1593
aS'1998-12-08'
p1594
aS'1998-12-09'
p1595
aS'1998-12-10'
p1596
aS'1998-12-11'
p1597
aS'1998-12-14'
p1598
aS'1998-12-15'
p1599
aS'1998-12-16'
p1600
aS'1998-12-17'
p1601
aS'1998-12-18'
p1602
aS'1998-12-21'
p1603
aS'1998-12-22'
p1604
aS'1998-12-23'
p1605
aS'1998-12-24'
p1606
aS'1998-12-28'
p1607
aS'1998-12-29'
p1608
aS'1998-12-30'
p1609
aS'1998-12-31'
p1610
aS'1999-01-04'
p1611
aS'1999-01-05'
p1612
aS'1999-01-06'
p1613
aS'1999-01-07'
p1614
aS'1999-01-08'
p1615
aS'1999-01-11'
p1616
aS'1999-01-12'
p1617
aS'1999-01-13'
p1618
aS'1999-01-14'
p1619
aS'1999-01-15'
p1620
aS'1999-01-19'
p1621
aS'1999-01-20'
p1622
aS'1999-01-21'
p1623
aS'1999-01-22'
p1624
aS'1999-01-25'
p1625
aS'1999-01-26'
p1626
aS'1999-01-27'
p1627
aS'1999-01-28'
p1628
aS'1999-01-29'
p1629
aS'1999-02-01'
p1630
aS'1999-02-02'
p1631
aS'1999-02-03'
p1632
aS'1999-02-04'
p1633
aS'1999-02-05'
p1634
aS'1999-02-08'
p1635
aS'1999-02-09'
p1636
aS'1999-02-10'
p1637
aS'1999-02-11'
p1638
aS'1999-02-12'
p1639
aS'1999-02-16'
p1640
aS'1999-02-17'
p1641
aS'1999-02-18'
p1642
aS'1999-02-19'
p1643
aS'1999-02-22'
p1644
aS'1999-02-23'
p1645
aS'1999-02-24'
p1646
aS'1999-02-25'
p1647
aS'1999-02-26'
p1648
aS'1999-03-01'
p1649
aS'1999-03-02'
p1650
aS'1999-03-03'
p1651
aS'1999-03-04'
p1652
aS'1999-03-05'
p1653
aS'1999-03-08'
p1654
aS'1999-03-09'
p1655
aS'1999-03-10'
p1656
aS'1999-03-11'
p1657
aS'1999-03-12'
p1658
aS'1999-03-15'
p1659
aS'1999-03-16'
p1660
aS'1999-03-17'
p1661
aS'1999-03-18'
p1662
aS'1999-03-19'
p1663
aS'1999-03-22'
p1664
aS'1999-03-23'
p1665
aS'1999-03-24'
p1666
aS'1999-03-25'
p1667
aS'1999-03-26'
p1668
aS'1999-03-29'
p1669
aS'1999-03-30'
p1670
aS'1999-03-31'
p1671
aS'1999-04-01'
p1672
aS'1999-04-05'
p1673
aS'1999-04-06'
p1674
aS'1999-04-07'
p1675
aS'1999-04-08'
p1676
aS'1999-04-09'
p1677
aS'1999-04-12'
p1678
aS'1999-04-13'
p1679
aS'1999-04-14'
p1680
aS'1999-04-15'
p1681
aS'1999-04-16'
p1682
aS'1999-04-19'
p1683
aS'1999-04-20'
p1684
aS'1999-04-21'
p1685
aS'1999-04-22'
p1686
aS'1999-04-23'
p1687
aS'1999-04-26'
p1688
aS'1999-04-27'
p1689
aS'1999-04-28'
p1690
aS'1999-04-29'
p1691
aS'1999-04-30'
p1692
aS'1999-05-03'
p1693
aS'1999-05-04'
p1694
aS'1999-05-05'
p1695
aS'1999-05-06'
p1696
aS'1999-05-07'
p1697
aS'1999-05-10'
p1698
aS'1999-05-11'
p1699
aS'1999-05-12'
p1700
aS'1999-05-13'
p1701
aS'1999-05-14'
p1702
aS'1999-05-17'
p1703
aS'1999-05-18'
p1704
aS'1999-05-19'
p1705
aS'1999-05-20'
p1706
aS'1999-05-21'
p1707
aS'1999-05-24'
p1708
aS'1999-05-25'
p1709
aS'1999-05-26'
p1710
aS'1999-05-27'
p1711
aS'1999-05-28'
p1712
aS'1999-06-01'
p1713
aS'1999-06-02'
p1714
aS'1999-06-03'
p1715
aS'1999-06-04'
p1716
aS'1999-06-07'
p1717
aS'1999-06-08'
p1718
aS'1999-06-09'
p1719
aS'1999-06-10'
p1720
aS'1999-06-11'
p1721
aS'1999-06-14'
p1722
aS'1999-06-15'
p1723
aS'1999-06-16'
p1724
aS'1999-06-17'
p1725
aS'1999-06-18'
p1726
aS'1999-06-21'
p1727
aS'1999-06-22'
p1728
aS'1999-06-23'
p1729
aS'1999-06-24'
p1730
aS'1999-06-25'
p1731
aS'1999-06-28'
p1732
aS'1999-06-29'
p1733
aS'1999-06-30'
p1734
aS'1999-07-01'
p1735
aS'1999-07-02'
p1736
aS'1999-07-06'
p1737
aS'1999-07-07'
p1738
aS'1999-07-08'
p1739
aS'1999-07-09'
p1740
aS'1999-07-12'
p1741
aS'1999-07-13'
p1742
aS'1999-07-14'
p1743
aS'1999-07-15'
p1744
aS'1999-07-16'
p1745
aS'1999-07-19'
p1746
aS'1999-07-20'
p1747
aS'1999-07-21'
p1748
aS'1999-07-22'
p1749
aS'1999-07-23'
p1750
aS'1999-07-26'
p1751
aS'1999-07-27'
p1752
aS'1999-07-28'
p1753
aS'1999-07-29'
p1754
aS'1999-07-30'
p1755
aS'1999-08-02'
p1756
aS'1999-08-03'
p1757
aS'1999-08-04'
p1758
aS'1999-08-05'
p1759
aS'1999-08-06'
p1760
aS'1999-08-09'
p1761
aS'1999-08-10'
p1762
aS'1999-08-11'
p1763
aS'1999-08-12'
p1764
aS'1999-08-13'
p1765
aS'1999-08-16'
p1766
aS'1999-08-17'
p1767
aS'1999-08-18'
p1768
aS'1999-08-19'
p1769
aS'1999-08-20'
p1770
aS'1999-08-23'
p1771
aS'1999-08-24'
p1772
aS'1999-08-25'
p1773
aS'1999-08-26'
p1774
aS'1999-08-27'
p1775
aS'1999-08-30'
p1776
aS'1999-08-31'
p1777
aS'1999-09-01'
p1778
aS'1999-09-02'
p1779
aS'1999-09-03'
p1780
aS'1999-09-07'
p1781
aS'1999-09-08'
p1782
aS'1999-09-09'
p1783
aS'1999-09-10'
p1784
aS'1999-09-13'
p1785
aS'1999-09-14'
p1786
aS'1999-09-15'
p1787
aS'1999-09-16'
p1788
aS'1999-09-17'
p1789
aS'1999-09-20'
p1790
aS'1999-09-21'
p1791
aS'1999-09-22'
p1792
aS'1999-09-23'
p1793
aS'1999-09-24'
p1794
aS'1999-09-27'
p1795
aS'1999-09-28'
p1796
aS'1999-09-29'
p1797
aS'1999-09-30'
p1798
aS'1999-10-01'
p1799
aS'1999-10-04'
p1800
aS'1999-10-05'
p1801
aS'1999-10-06'
p1802
aS'1999-10-07'
p1803
aS'1999-10-08'
p1804
aS'1999-10-11'
p1805
aS'1999-10-12'
p1806
aS'1999-10-13'
p1807
aS'1999-10-14'
p1808
aS'1999-10-15'
p1809
aS'1999-10-18'
p1810
aS'1999-10-19'
p1811
aS'1999-10-20'
p1812
aS'1999-10-21'
p1813
aS'1999-10-22'
p1814
aS'1999-10-25'
p1815
aS'1999-10-26'
p1816
aS'1999-10-27'
p1817
aS'1999-10-28'
p1818
aS'1999-10-29'
p1819
aS'1999-11-01'
p1820
aS'1999-11-02'
p1821
aS'1999-11-03'
p1822
aS'1999-11-04'
p1823
aS'1999-11-05'
p1824
aS'1999-11-08'
p1825
aS'1999-11-09'
p1826
aS'1999-11-10'
p1827
aS'1999-11-11'
p1828
aS'1999-11-12'
p1829
aS'1999-11-15'
p1830
aS'1999-11-16'
p1831
aS'1999-11-17'
p1832
aS'1999-11-18'
p1833
aS'1999-11-19'
p1834
aS'1999-11-22'
p1835
aS'1999-11-23'
p1836
aS'1999-11-24'
p1837
aS'1999-11-26'
p1838
aS'1999-11-29'
p1839
aS'1999-11-30'
p1840
aS'1999-12-01'
p1841
aS'1999-12-02'
p1842
aS'1999-12-03'
p1843
aS'1999-12-06'
p1844
aS'1999-12-07'
p1845
aS'1999-12-08'
p1846
aS'1999-12-09'
p1847
aS'1999-12-10'
p1848
aS'1999-12-13'
p1849
aS'1999-12-14'
p1850
aS'1999-12-15'
p1851
aS'1999-12-16'
p1852
aS'1999-12-17'
p1853
aS'1999-12-20'
p1854
aS'1999-12-21'
p1855
aS'1999-12-22'
p1856
aS'1999-12-23'
p1857
aS'1999-12-27'
p1858
aS'1999-12-28'
p1859
aS'1999-12-29'
p1860
aS'1999-12-30'
p1861
aS'1999-12-31'
p1862
aS'2000-01-03'
p1863
aS'2000-01-04'
p1864
aS'2000-01-05'
p1865
aS'2000-01-06'
p1866
aS'2000-01-07'
p1867
aS'2000-01-10'
p1868
aS'2000-01-11'
p1869
aS'2000-01-12'
p1870
aS'2000-01-13'
p1871
aS'2000-01-14'
p1872
aS'2000-01-18'
p1873
aS'2000-01-19'
p1874
aS'2000-01-20'
p1875
aS'2000-01-21'
p1876
aS'2000-01-24'
p1877
aS'2000-01-25'
p1878
aS'2000-01-26'
p1879
aS'2000-01-27'
p1880
aS'2000-01-28'
p1881
aS'2000-01-31'
p1882
aS'2000-02-01'
p1883
aS'2000-02-02'
p1884
aS'2000-02-03'
p1885
aS'2000-02-04'
p1886
aS'2000-02-07'
p1887
aS'2000-02-08'
p1888
aS'2000-02-09'
p1889
aS'2000-02-10'
p1890
aS'2000-02-11'
p1891
aS'2000-02-14'
p1892
aS'2000-02-15'
p1893
aS'2000-02-16'
p1894
aS'2000-02-17'
p1895
aS'2000-02-18'
p1896
aS'2000-02-22'
p1897
aS'2000-02-23'
p1898
aS'2000-02-24'
p1899
aS'2000-02-25'
p1900
aS'2000-02-28'
p1901
aS'2000-02-29'
p1902
aS'2000-03-01'
p1903
aS'2000-03-02'
p1904
aS'2000-03-03'
p1905
aS'2000-03-06'
p1906
aS'2000-03-07'
p1907
aS'2000-03-08'
p1908
aS'2000-03-09'
p1909
aS'2000-03-10'
p1910
aS'2000-03-13'
p1911
aS'2000-03-14'
p1912
aS'2000-03-15'
p1913
aS'2000-03-16'
p1914
aS'2000-03-17'
p1915
aS'2000-03-20'
p1916
aS'2000-03-21'
p1917
aS'2000-03-22'
p1918
aS'2000-03-23'
p1919
aS'2000-03-24'
p1920
aS'2000-03-27'
p1921
aS'2000-03-28'
p1922
aS'2000-03-29'
p1923
aS'2000-03-30'
p1924
aS'2000-03-31'
p1925
aS'2000-04-03'
p1926
aS'2000-04-04'
p1927
aS'2000-04-05'
p1928
aS'2000-04-06'
p1929
aS'2000-04-07'
p1930
aS'2000-04-10'
p1931
aS'2000-04-11'
p1932
aS'2000-04-12'
p1933
aS'2000-04-13'
p1934
aS'2000-04-14'
p1935
aS'2000-04-17'
p1936
aS'2000-04-18'
p1937
aS'2000-04-19'
p1938
aS'2000-04-20'
p1939
aS'2000-04-24'
p1940
aS'2000-04-25'
p1941
aS'2000-04-26'
p1942
aS'2000-04-27'
p1943
aS'2000-04-28'
p1944
aS'2000-05-01'
p1945
aS'2000-05-02'
p1946
aS'2000-05-03'
p1947
aS'2000-05-04'
p1948
aS'2000-05-05'
p1949
aS'2000-05-08'
p1950
aS'2000-05-09'
p1951
aS'2000-05-10'
p1952
aS'2000-05-11'
p1953
aS'2000-05-12'
p1954
aS'2000-05-15'
p1955
aS'2000-05-16'
p1956
aS'2000-05-17'
p1957
aS'2000-05-18'
p1958
aS'2000-05-19'
p1959
aS'2000-05-22'
p1960
aS'2000-05-23'
p1961
aS'2000-05-24'
p1962
aS'2000-05-25'
p1963
aS'2000-05-26'
p1964
aS'2000-05-30'
p1965
aS'2000-05-31'
p1966
aS'2000-06-01'
p1967
aS'2000-06-02'
p1968
aS'2000-06-05'
p1969
aS'2000-06-06'
p1970
aS'2000-06-07'
p1971
aS'2000-06-08'
p1972
aS'2000-06-09'
p1973
aS'2000-06-12'
p1974
aS'2000-06-13'
p1975
aS'2000-06-14'
p1976
aS'2000-06-15'
p1977
aS'2000-06-16'
p1978
aS'2000-06-19'
p1979
aS'2000-06-20'
p1980
aS'2000-06-21'
p1981
aS'2000-06-22'
p1982
aS'2000-06-23'
p1983
aS'2000-06-26'
p1984
aS'2000-06-27'
p1985
aS'2000-06-28'
p1986
aS'2000-06-29'
p1987
aS'2000-06-30'
p1988
aS'2000-07-03'
p1989
aS'2000-07-05'
p1990
aS'2000-07-06'
p1991
aS'2000-07-07'
p1992
aS'2000-07-10'
p1993
aS'2000-07-11'
p1994
aS'2000-07-12'
p1995
aS'2000-07-13'
p1996
aS'2000-07-14'
p1997
aS'2000-07-17'
p1998
aS'2000-07-18'
p1999
aS'2000-07-19'
p2000
aS'2000-07-20'
p2001
aS'2000-07-21'
p2002
aS'2000-07-24'
p2003
aS'2000-07-25'
p2004
aS'2000-07-26'
p2005
aS'2000-07-27'
p2006
aS'2000-07-28'
p2007
aS'2000-07-31'
p2008
aS'2000-08-01'
p2009
aS'2000-08-02'
p2010
aS'2000-08-03'
p2011
aS'2000-08-04'
p2012
aS'2000-08-07'
p2013
aS'2000-08-08'
p2014
aS'2000-08-09'
p2015
aS'2000-08-10'
p2016
aS'2000-08-11'
p2017
aS'2000-08-14'
p2018
aS'2000-08-15'
p2019
aS'2000-08-16'
p2020
aS'2000-08-17'
p2021
aS'2000-08-18'
p2022
aS'2000-08-21'
p2023
aS'2000-08-22'
p2024
aS'2000-08-23'
p2025
aS'2000-08-24'
p2026
aS'2000-08-25'
p2027
aS'2000-08-28'
p2028
aS'2000-08-29'
p2029
aS'2000-08-30'
p2030
aS'2000-08-31'
p2031
aS'2000-09-01'
p2032
aS'2000-09-05'
p2033
aS'2000-09-06'
p2034
aS'2000-09-07'
p2035
aS'2000-09-08'
p2036
aS'2000-09-11'
p2037
aS'2000-09-12'
p2038
aS'2000-09-13'
p2039
aS'2000-09-14'
p2040
aS'2000-09-15'
p2041
aS'2000-09-18'
p2042
aS'2000-09-19'
p2043
aS'2000-09-20'
p2044
aS'2000-09-21'
p2045
aS'2000-09-22'
p2046
aS'2000-09-25'
p2047
aS'2000-09-26'
p2048
aS'2000-09-27'
p2049
aS'2000-09-28'
p2050
aS'2000-09-29'
p2051
aS'2000-10-02'
p2052
aS'2000-10-03'
p2053
aS'2000-10-04'
p2054
aS'2000-10-05'
p2055
aS'2000-10-06'
p2056
aS'2000-10-09'
p2057
aS'2000-10-10'
p2058
aS'2000-10-11'
p2059
aS'2000-10-12'
p2060
aS'2000-10-13'
p2061
aS'2000-10-16'
p2062
aS'2000-10-17'
p2063
aS'2000-10-18'
p2064
aS'2000-10-19'
p2065
aS'2000-10-20'
p2066
aS'2000-10-23'
p2067
aS'2000-10-24'
p2068
aS'2000-10-25'
p2069
aS'2000-10-26'
p2070
aS'2000-10-27'
p2071
aS'2000-10-30'
p2072
aS'2000-10-31'
p2073
aS'2000-11-01'
p2074
aS'2000-11-02'
p2075
aS'2000-11-03'
p2076
aS'2000-11-06'
p2077
aS'2000-11-07'
p2078
aS'2000-11-08'
p2079
aS'2000-11-09'
p2080
aS'2000-11-10'
p2081
aS'2000-11-13'
p2082
aS'2000-11-14'
p2083
aS'2000-11-15'
p2084
aS'2000-11-16'
p2085
aS'2000-11-17'
p2086
aS'2000-11-20'
p2087
aS'2000-11-21'
p2088
aS'2000-11-22'
p2089
aS'2000-11-24'
p2090
aS'2000-11-27'
p2091
aS'2000-11-28'
p2092
aS'2000-11-29'
p2093
aS'2000-11-30'
p2094
aS'2000-12-01'
p2095
aS'2000-12-04'
p2096
aS'2000-12-05'
p2097
aS'2000-12-06'
p2098
aS'2000-12-07'
p2099
aS'2000-12-08'
p2100
aS'2000-12-11'
p2101
aS'2000-12-12'
p2102
aS'2000-12-13'
p2103
aS'2000-12-14'
p2104
aS'2000-12-15'
p2105
aS'2000-12-18'
p2106
aS'2000-12-19'
p2107
aS'2000-12-20'
p2108
aS'2000-12-21'
p2109
aS'2000-12-22'
p2110
aS'2000-12-26'
p2111
aS'2000-12-27'
p2112
aS'2000-12-28'
p2113
aS'2000-12-29'
p2114
aS'2001-01-02'
p2115
aS'2001-01-03'
p2116
aS'2001-01-04'
p2117
aS'2001-01-05'
p2118
aS'2001-01-08'
p2119
aS'2001-01-09'
p2120
aS'2001-01-10'
p2121
aS'2001-01-11'
p2122
aS'2001-01-12'
p2123
aS'2001-01-16'
p2124
aS'2001-01-17'
p2125
aS'2001-01-18'
p2126
aS'2001-01-19'
p2127
aS'2001-01-22'
p2128
aS'2001-01-23'
p2129
aS'2001-01-24'
p2130
aS'2001-01-25'
p2131
aS'2001-01-26'
p2132
aS'2001-01-29'
p2133
aS'2001-01-30'
p2134
aS'2001-01-31'
p2135
aS'2001-02-01'
p2136
aS'2001-02-02'
p2137
aS'2001-02-05'
p2138
aS'2001-02-06'
p2139
aS'2001-02-07'
p2140
aS'2001-02-08'
p2141
aS'2001-02-09'
p2142
aS'2001-02-12'
p2143
aS'2001-02-13'
p2144
aS'2001-02-14'
p2145
aS'2001-02-15'
p2146
aS'2001-02-16'
p2147
aS'2001-02-20'
p2148
aS'2001-02-21'
p2149
aS'2001-02-22'
p2150
aS'2001-02-23'
p2151
aS'2001-02-26'
p2152
aS'2001-02-27'
p2153
aS'2001-02-28'
p2154
aS'2001-03-01'
p2155
aS'2001-03-02'
p2156
aS'2001-03-05'
p2157
aS'2001-03-06'
p2158
aS'2001-03-07'
p2159
aS'2001-03-08'
p2160
aS'2001-03-09'
p2161
aS'2001-03-12'
p2162
aS'2001-03-13'
p2163
aS'2001-03-14'
p2164
aS'2001-03-15'
p2165
aS'2001-03-16'
p2166
aS'2001-03-19'
p2167
aS'2001-03-20'
p2168
aS'2001-03-21'
p2169
aS'2001-03-22'
p2170
aS'2001-03-23'
p2171
aS'2001-03-26'
p2172
aS'2001-03-27'
p2173
aS'2001-03-28'
p2174
aS'2001-03-29'
p2175
aS'2001-03-30'
p2176
aS'2001-04-02'
p2177
aS'2001-04-03'
p2178
aS'2001-04-04'
p2179
aS'2001-04-05'
p2180
aS'2001-04-06'
p2181
aS'2001-04-09'
p2182
aS'2001-04-10'
p2183
aS'2001-04-11'
p2184
aS'2001-04-12'
p2185
aS'2001-04-16'
p2186
aS'2001-04-17'
p2187
aS'2001-04-18'
p2188
aS'2001-04-19'
p2189
aS'2001-04-20'
p2190
aS'2001-04-23'
p2191
aS'2001-04-24'
p2192
aS'2001-04-25'
p2193
aS'2001-04-26'
p2194
aS'2001-04-27'
p2195
aS'2001-04-30'
p2196
aS'2001-05-01'
p2197
aS'2001-05-02'
p2198
aS'2001-05-03'
p2199
aS'2001-05-04'
p2200
aS'2001-05-07'
p2201
aS'2001-05-08'
p2202
aS'2001-05-09'
p2203
aS'2001-05-10'
p2204
aS'2001-05-11'
p2205
aS'2001-05-14'
p2206
aS'2001-05-15'
p2207
aS'2001-05-16'
p2208
aS'2001-05-17'
p2209
aS'2001-05-18'
p2210
aS'2001-05-21'
p2211
aS'2001-05-22'
p2212
aS'2001-05-23'
p2213
aS'2001-05-24'
p2214
aS'2001-05-25'
p2215
aS'2001-05-29'
p2216
aS'2001-05-30'
p2217
aS'2001-05-31'
p2218
aS'2001-06-01'
p2219
aS'2001-06-04'
p2220
aS'2001-06-05'
p2221
aS'2001-06-06'
p2222
aS'2001-06-07'
p2223
aS'2001-06-08'
p2224
aS'2001-06-11'
p2225
aS'2001-06-12'
p2226
aS'2001-06-13'
p2227
aS'2001-06-14'
p2228
aS'2001-06-15'
p2229
aS'2001-06-18'
p2230
aS'2001-06-19'
p2231
aS'2001-06-20'
p2232
aS'2001-06-21'
p2233
aS'2001-06-22'
p2234
aS'2001-06-25'
p2235
aS'2001-06-26'
p2236
aS'2001-06-27'
p2237
aS'2001-06-28'
p2238
aS'2001-06-29'
p2239
aS'2001-07-02'
p2240
aS'2001-07-03'
p2241
aS'2001-07-05'
p2242
aS'2001-07-06'
p2243
aS'2001-07-09'
p2244
aS'2001-07-10'
p2245
aS'2001-07-11'
p2246
aS'2001-07-12'
p2247
aS'2001-07-13'
p2248
aS'2001-07-16'
p2249
aS'2001-07-17'
p2250
aS'2001-07-18'
p2251
aS'2001-07-19'
p2252
aS'2001-07-20'
p2253
aS'2001-07-23'
p2254
aS'2001-07-24'
p2255
aS'2001-07-25'
p2256
aS'2001-07-26'
p2257
aS'2001-07-27'
p2258
aS'2001-07-30'
p2259
aS'2001-07-31'
p2260
aS'2001-08-01'
p2261
aS'2001-08-02'
p2262
aS'2001-08-03'
p2263
aS'2001-08-06'
p2264
aS'2001-08-07'
p2265
aS'2001-08-08'
p2266
aS'2001-08-09'
p2267
aS'2001-08-10'
p2268
aS'2001-08-13'
p2269
aS'2001-08-14'
p2270
aS'2001-08-15'
p2271
aS'2001-08-16'
p2272
aS'2001-08-17'
p2273
aS'2001-08-20'
p2274
aS'2001-08-21'
p2275
aS'2001-08-22'
p2276
aS'2001-08-23'
p2277
aS'2001-08-24'
p2278
aS'2001-08-27'
p2279
aS'2001-08-28'
p2280
aS'2001-08-29'
p2281
aS'2001-08-30'
p2282
aS'2001-08-31'
p2283
aS'2001-09-04'
p2284
aS'2001-09-05'
p2285
aS'2001-09-06'
p2286
aS'2001-09-07'
p2287
aS'2001-09-10'
p2288
aS'2001-09-17'
p2289
aS'2001-09-18'
p2290
aS'2001-09-19'
p2291
aS'2001-09-20'
p2292
aS'2001-09-21'
p2293
aS'2001-09-24'
p2294
aS'2001-09-25'
p2295
aS'2001-09-26'
p2296
aS'2001-09-27'
p2297
aS'2001-09-28'
p2298
aS'2001-10-01'
p2299
aS'2001-10-02'
p2300
aS'2001-10-03'
p2301
aS'2001-10-04'
p2302
aS'2001-10-05'
p2303
aS'2001-10-08'
p2304
aS'2001-10-09'
p2305
aS'2001-10-10'
p2306
aS'2001-10-11'
p2307
aS'2001-10-12'
p2308
aS'2001-10-15'
p2309
aS'2001-10-16'
p2310
aS'2001-10-17'
p2311
aS'2001-10-18'
p2312
aS'2001-10-19'
p2313
aS'2001-10-22'
p2314
aS'2001-10-23'
p2315
aS'2001-10-24'
p2316
aS'2001-10-25'
p2317
aS'2001-10-26'
p2318
aS'2001-10-29'
p2319
aS'2001-10-30'
p2320
aS'2001-10-31'
p2321
aS'2001-11-01'
p2322
aS'2001-11-02'
p2323
aS'2001-11-05'
p2324
aS'2001-11-06'
p2325
aS'2001-11-07'
p2326
aS'2001-11-08'
p2327
aS'2001-11-09'
p2328
aS'2001-11-12'
p2329
aS'2001-11-13'
p2330
aS'2001-11-14'
p2331
aS'2001-11-15'
p2332
aS'2001-11-16'
p2333
aS'2001-11-19'
p2334
aS'2001-11-20'
p2335
aS'2001-11-21'
p2336
aS'2001-11-23'
p2337
aS'2001-11-26'
p2338
aS'2001-11-27'
p2339
aS'2001-11-28'
p2340
aS'2001-11-29'
p2341
aS'2001-11-30'
p2342
aS'2001-12-03'
p2343
aS'2001-12-04'
p2344
aS'2001-12-05'
p2345
aS'2001-12-06'
p2346
aS'2001-12-07'
p2347
aS'2001-12-10'
p2348
aS'2001-12-11'
p2349
aS'2001-12-12'
p2350
aS'2001-12-13'
p2351
aS'2001-12-14'
p2352
aS'2001-12-17'
p2353
aS'2001-12-18'
p2354
aS'2001-12-19'
p2355
aS'2001-12-20'
p2356
aS'2001-12-21'
p2357
aS'2001-12-24'
p2358
aS'2001-12-26'
p2359
aS'2001-12-27'
p2360
aS'2001-12-28'
p2361
aS'2001-12-31'
p2362
aS'2002-01-02'
p2363
aS'2002-01-03'
p2364
aS'2002-01-04'
p2365
aS'2002-01-07'
p2366
aS'2002-01-08'
p2367
aS'2002-01-09'
p2368
aS'2002-01-10'
p2369
aS'2002-01-11'
p2370
aS'2002-01-14'
p2371
aS'2002-01-15'
p2372
aS'2002-01-16'
p2373
aS'2002-01-17'
p2374
aS'2002-01-18'
p2375
aS'2002-01-22'
p2376
aS'2002-01-23'
p2377
aS'2002-01-24'
p2378
aS'2002-01-25'
p2379
aS'2002-01-28'
p2380
aS'2002-01-29'
p2381
aS'2002-01-30'
p2382
aS'2002-01-31'
p2383
aS'2002-02-01'
p2384
aS'2002-02-04'
p2385
aS'2002-02-05'
p2386
aS'2002-02-06'
p2387
aS'2002-02-07'
p2388
aS'2002-02-08'
p2389
aS'2002-02-11'
p2390
aS'2002-02-12'
p2391
aS'2002-02-13'
p2392
aS'2002-02-14'
p2393
aS'2002-02-15'
p2394
aS'2002-02-19'
p2395
aS'2002-02-20'
p2396
aS'2002-02-21'
p2397
aS'2002-02-22'
p2398
aS'2002-02-25'
p2399
aS'2002-02-26'
p2400
aS'2002-02-27'
p2401
aS'2002-02-28'
p2402
aS'2002-03-01'
p2403
aS'2002-03-04'
p2404
aS'2002-03-05'
p2405
aS'2002-03-06'
p2406
aS'2002-03-07'
p2407
aS'2002-03-08'
p2408
aS'2002-03-11'
p2409
aS'2002-03-12'
p2410
aS'2002-03-13'
p2411
aS'2002-03-14'
p2412
aS'2002-03-15'
p2413
aS'2002-03-18'
p2414
aS'2002-03-19'
p2415
aS'2002-03-20'
p2416
aS'2002-03-21'
p2417
aS'2002-03-22'
p2418
aS'2002-03-25'
p2419
aS'2002-03-26'
p2420
aS'2002-03-27'
p2421
aS'2002-03-28'
p2422
aS'2002-04-01'
p2423
aS'2002-04-02'
p2424
aS'2002-04-03'
p2425
aS'2002-04-04'
p2426
aS'2002-04-05'
p2427
aS'2002-04-08'
p2428
aS'2002-04-09'
p2429
aS'2002-04-10'
p2430
aS'2002-04-11'
p2431
aS'2002-04-12'
p2432
aS'2002-04-15'
p2433
aS'2002-04-16'
p2434
aS'2002-04-17'
p2435
aS'2002-04-18'
p2436
aS'2002-04-19'
p2437
aS'2002-04-22'
p2438
aS'2002-04-23'
p2439
aS'2002-04-24'
p2440
aS'2002-04-25'
p2441
aS'2002-04-26'
p2442
aS'2002-04-29'
p2443
aS'2002-04-30'
p2444
aS'2002-05-01'
p2445
aS'2002-05-02'
p2446
aS'2002-05-03'
p2447
aS'2002-05-06'
p2448
aS'2002-05-07'
p2449
aS'2002-05-08'
p2450
aS'2002-05-09'
p2451
aS'2002-05-10'
p2452
aS'2002-05-13'
p2453
aS'2002-05-14'
p2454
aS'2002-05-15'
p2455
aS'2002-05-16'
p2456
aS'2002-05-17'
p2457
aS'2002-05-20'
p2458
aS'2002-05-21'
p2459
aS'2002-05-22'
p2460
aS'2002-05-23'
p2461
aS'2002-05-24'
p2462
aS'2002-05-28'
p2463
aS'2002-05-29'
p2464
aS'2002-05-30'
p2465
aS'2002-05-31'
p2466
aS'2002-06-03'
p2467
aS'2002-06-04'
p2468
aS'2002-06-05'
p2469
aS'2002-06-06'
p2470
aS'2002-06-07'
p2471
aS'2002-06-10'
p2472
aS'2002-06-11'
p2473
aS'2002-06-12'
p2474
aS'2002-06-13'
p2475
aS'2002-06-14'
p2476
aS'2002-06-17'
p2477
aS'2002-06-18'
p2478
aS'2002-06-19'
p2479
aS'2002-06-20'
p2480
aS'2002-06-21'
p2481
aS'2002-06-24'
p2482
aS'2002-06-25'
p2483
aS'2002-06-26'
p2484
aS'2002-06-27'
p2485
aS'2002-06-28'
p2486
aS'2002-07-01'
p2487
aS'2002-07-02'
p2488
aS'2002-07-03'
p2489
aS'2002-07-05'
p2490
aS'2002-07-08'
p2491
aS'2002-07-09'
p2492
aS'2002-07-10'
p2493
aS'2002-07-11'
p2494
aS'2002-07-12'
p2495
aS'2002-07-15'
p2496
aS'2002-07-16'
p2497
aS'2002-07-17'
p2498
aS'2002-07-18'
p2499
aS'2002-07-19'
p2500
aS'2002-07-22'
p2501
aS'2002-07-23'
p2502
aS'2002-07-24'
p2503
aS'2002-07-25'
p2504
aS'2002-07-26'
p2505
aS'2002-07-29'
p2506
aS'2002-07-30'
p2507
aS'2002-07-31'
p2508
aS'2002-08-01'
p2509
aS'2002-08-02'
p2510
aS'2002-08-05'
p2511
aS'2002-08-06'
p2512
aS'2002-08-07'
p2513
aS'2002-08-08'
p2514
aS'2002-08-09'
p2515
aS'2002-08-12'
p2516
aS'2002-08-13'
p2517
aS'2002-08-14'
p2518
aS'2002-08-15'
p2519
aS'2002-08-16'
p2520
aS'2002-08-19'
p2521
aS'2002-08-20'
p2522
aS'2002-08-21'
p2523
aS'2002-08-22'
p2524
aS'2002-08-23'
p2525
aS'2002-08-26'
p2526
aS'2002-08-27'
p2527
aS'2002-08-28'
p2528
aS'2002-08-29'
p2529
aS'2002-08-30'
p2530
aS'2002-09-03'
p2531
aS'2002-09-04'
p2532
aS'2002-09-05'
p2533
aS'2002-09-06'
p2534
aS'2002-09-09'
p2535
aS'2002-09-10'
p2536
aS'2002-09-11'
p2537
aS'2002-09-12'
p2538
aS'2002-09-13'
p2539
aS'2002-09-16'
p2540
aS'2002-09-17'
p2541
aS'2002-09-18'
p2542
aS'2002-09-19'
p2543
aS'2002-09-20'
p2544
aS'2002-09-23'
p2545
aS'2002-09-24'
p2546
aS'2002-09-25'
p2547
aS'2002-09-26'
p2548
aS'2002-09-27'
p2549
aS'2002-09-30'
p2550
aS'2002-10-01'
p2551
aS'2002-10-02'
p2552
aS'2002-10-03'
p2553
aS'2002-10-04'
p2554
aS'2002-10-07'
p2555
aS'2002-10-08'
p2556
aS'2002-10-09'
p2557
aS'2002-10-10'
p2558
aS'2002-10-11'
p2559
aS'2002-10-14'
p2560
aS'2002-10-15'
p2561
aS'2002-10-16'
p2562
aS'2002-10-17'
p2563
aS'2002-10-18'
p2564
aS'2002-10-21'
p2565
aS'2002-10-22'
p2566
aS'2002-10-23'
p2567
aS'2002-10-24'
p2568
aS'2002-10-25'
p2569
aS'2002-10-28'
p2570
aS'2002-10-29'
p2571
aS'2002-10-30'
p2572
aS'2002-10-31'
p2573
aS'2002-11-01'
p2574
aS'2002-11-04'
p2575
aS'2002-11-05'
p2576
aS'2002-11-06'
p2577
aS'2002-11-07'
p2578
aS'2002-11-08'
p2579
aS'2002-11-11'
p2580
aS'2002-11-12'
p2581
aS'2002-11-13'
p2582
aS'2002-11-14'
p2583
aS'2002-11-15'
p2584
aS'2002-11-18'
p2585
aS'2002-11-19'
p2586
aS'2002-11-20'
p2587
aS'2002-11-21'
p2588
aS'2002-11-22'
p2589
aS'2002-11-25'
p2590
aS'2002-11-26'
p2591
aS'2002-11-27'
p2592
aS'2002-11-29'
p2593
aS'2002-12-02'
p2594
aS'2002-12-03'
p2595
aS'2002-12-04'
p2596
aS'2002-12-05'
p2597
aS'2002-12-06'
p2598
aS'2002-12-09'
p2599
aS'2002-12-10'
p2600
aS'2002-12-11'
p2601
aS'2002-12-12'
p2602
aS'2002-12-13'
p2603
aS'2002-12-16'
p2604
aS'2002-12-17'
p2605
aS'2002-12-18'
p2606
aS'2002-12-19'
p2607
aS'2002-12-20'
p2608
aS'2002-12-23'
p2609
aS'2002-12-24'
p2610
aS'2002-12-26'
p2611
aS'2002-12-27'
p2612
aS'2002-12-30'
p2613
aS'2002-12-31'
p2614
aS'2003-01-02'
p2615
aS'2003-01-03'
p2616
aS'2003-01-06'
p2617
aS'2003-01-07'
p2618
aS'2003-01-08'
p2619
aS'2003-01-09'
p2620
aS'2003-01-10'
p2621
aS'2003-01-13'
p2622
aS'2003-01-14'
p2623
aS'2003-01-15'
p2624
aS'2003-01-16'
p2625
aS'2003-01-17'
p2626
aS'2003-01-21'
p2627
aS'2003-01-22'
p2628
aS'2003-01-23'
p2629
aS'2003-01-24'
p2630
aS'2003-01-27'
p2631
aS'2003-01-28'
p2632
aS'2003-01-29'
p2633
aS'2003-01-30'
p2634
aS'2003-01-31'
p2635
aS'2003-02-03'
p2636
aS'2003-02-04'
p2637
aS'2003-02-05'
p2638
aS'2003-02-06'
p2639
aS'2003-02-07'
p2640
aS'2003-02-10'
p2641
aS'2003-02-11'
p2642
aS'2003-02-12'
p2643
aS'2003-02-13'
p2644
aS'2003-02-14'
p2645
aS'2003-02-18'
p2646
aS'2003-02-19'
p2647
aS'2003-02-20'
p2648
aS'2003-02-21'
p2649
aS'2003-02-24'
p2650
aS'2003-02-25'
p2651
aS'2003-02-26'
p2652
aS'2003-02-27'
p2653
aS'2003-02-28'
p2654
aS'2003-03-03'
p2655
aS'2003-03-04'
p2656
aS'2003-03-05'
p2657
aS'2003-03-06'
p2658
aS'2003-03-07'
p2659
aS'2003-03-10'
p2660
aS'2003-03-11'
p2661
aS'2003-03-12'
p2662
aS'2003-03-13'
p2663
aS'2003-03-14'
p2664
aS'2003-03-17'
p2665
aS'2003-03-18'
p2666
aS'2003-03-19'
p2667
aS'2003-03-20'
p2668
aS'2003-03-21'
p2669
aS'2003-03-24'
p2670
aS'2003-03-25'
p2671
aS'2003-03-26'
p2672
aS'2003-03-27'
p2673
aS'2003-03-28'
p2674
aS'2003-03-31'
p2675
aS'2003-04-01'
p2676
aS'2003-04-02'
p2677
aS'2003-04-03'
p2678
aS'2003-04-04'
p2679
aS'2003-04-07'
p2680
aS'2003-04-08'
p2681
aS'2003-04-09'
p2682
aS'2003-04-10'
p2683
aS'2003-04-11'
p2684
aS'2003-04-14'
p2685
aS'2003-04-15'
p2686
aS'2003-04-16'
p2687
aS'2003-04-17'
p2688
aS'2003-04-21'
p2689
aS'2003-04-22'
p2690
aS'2003-04-23'
p2691
aS'2003-04-24'
p2692
aS'2003-04-25'
p2693
aS'2003-04-28'
p2694
aS'2003-04-29'
p2695
aS'2003-04-30'
p2696
aS'2003-05-01'
p2697
aS'2003-05-02'
p2698
aS'2003-05-05'
p2699
aS'2003-05-06'
p2700
aS'2003-05-07'
p2701
aS'2003-05-08'
p2702
aS'2003-05-09'
p2703
aS'2003-05-12'
p2704
aS'2003-05-13'
p2705
aS'2003-05-14'
p2706
aS'2003-05-15'
p2707
aS'2003-05-16'
p2708
aS'2003-05-19'
p2709
aS'2003-05-20'
p2710
aS'2003-05-21'
p2711
aS'2003-05-22'
p2712
aS'2003-05-23'
p2713
aS'2003-05-27'
p2714
aS'2003-05-28'
p2715
aS'2003-05-29'
p2716
aS'2003-05-30'
p2717
aS'2003-06-02'
p2718
aS'2003-06-03'
p2719
aS'2003-06-04'
p2720
aS'2003-06-05'
p2721
aS'2003-06-06'
p2722
aS'2003-06-09'
p2723
aS'2003-06-10'
p2724
aS'2003-06-11'
p2725
aS'2003-06-12'
p2726
aS'2003-06-13'
p2727
aS'2003-06-16'
p2728
aS'2003-06-17'
p2729
aS'2003-06-18'
p2730
aS'2003-06-19'
p2731
aS'2003-06-20'
p2732
aS'2003-06-23'
p2733
aS'2003-06-24'
p2734
aS'2003-06-25'
p2735
aS'2003-06-26'
p2736
aS'2003-06-27'
p2737
aS'2003-06-30'
p2738
aS'2003-07-01'
p2739
aS'2003-07-02'
p2740
aS'2003-07-03'
p2741
aS'2003-07-07'
p2742
aS'2003-07-08'
p2743
aS'2003-07-09'
p2744
aS'2003-07-10'
p2745
aS'2003-07-11'
p2746
aS'2003-07-14'
p2747
aS'2003-07-15'
p2748
aS'2003-07-16'
p2749
aS'2003-07-17'
p2750
aS'2003-07-18'
p2751
aS'2003-07-21'
p2752
aS'2003-07-22'
p2753
aS'2003-07-23'
p2754
aS'2003-07-24'
p2755
aS'2003-07-25'
p2756
aS'2003-07-28'
p2757
aS'2003-07-29'
p2758
aS'2003-07-30'
p2759
aS'2003-07-31'
p2760
aS'2003-08-01'
p2761
aS'2003-08-04'
p2762
aS'2003-08-05'
p2763
aS'2003-08-06'
p2764
aS'2003-08-07'
p2765
aS'2003-08-08'
p2766
aS'2003-08-11'
p2767
aS'2003-08-12'
p2768
aS'2003-08-13'
p2769
aS'2003-08-14'
p2770
aS'2003-08-15'
p2771
aS'2003-08-18'
p2772
aS'2003-08-19'
p2773
aS'2003-08-20'
p2774
aS'2003-08-21'
p2775
aS'2003-08-22'
p2776
aS'2003-08-25'
p2777
aS'2003-08-26'
p2778
aS'2003-08-27'
p2779
aS'2003-08-28'
p2780
aS'2003-08-29'
p2781
aS'2003-09-02'
p2782
aS'2003-09-03'
p2783
aS'2003-09-04'
p2784
aS'2003-09-05'
p2785
aS'2003-09-08'
p2786
aS'2003-09-09'
p2787
aS'2003-09-10'
p2788
aS'2003-09-11'
p2789
aS'2003-09-12'
p2790
aS'2003-09-15'
p2791
aS'2003-09-16'
p2792
aS'2003-09-17'
p2793
aS'2003-09-18'
p2794
aS'2003-09-19'
p2795
aS'2003-09-22'
p2796
aS'2003-09-23'
p2797
aS'2003-09-24'
p2798
aS'2003-09-25'
p2799
aS'2003-09-26'
p2800
aS'2003-09-29'
p2801
aS'2003-09-30'
p2802
aS'2003-10-01'
p2803
aS'2003-10-02'
p2804
aS'2003-10-03'
p2805
aS'2003-10-06'
p2806
aS'2003-10-07'
p2807
aS'2003-10-08'
p2808
aS'2003-10-09'
p2809
aS'2003-10-10'
p2810
aS'2003-10-13'
p2811
aS'2003-10-14'
p2812
aS'2003-10-15'
p2813
aS'2003-10-16'
p2814
aS'2003-10-17'
p2815
aS'2003-10-20'
p2816
aS'2003-10-21'
p2817
aS'2003-10-22'
p2818
aS'2003-10-23'
p2819
aS'2003-10-24'
p2820
aS'2003-10-27'
p2821
aS'2003-10-28'
p2822
aS'2003-10-29'
p2823
aS'2003-10-30'
p2824
aS'2003-10-31'
p2825
aS'2003-11-03'
p2826
aS'2003-11-04'
p2827
aS'2003-11-05'
p2828
aS'2003-11-06'
p2829
aS'2003-11-07'
p2830
aS'2003-11-10'
p2831
aS'2003-11-11'
p2832
aS'2003-11-12'
p2833
aS'2003-11-13'
p2834
aS'2003-11-14'
p2835
aS'2003-11-17'
p2836
aS'2003-11-18'
p2837
aS'2003-11-19'
p2838
aS'2003-11-20'
p2839
aS'2003-11-21'
p2840
aS'2003-11-24'
p2841
aS'2003-11-25'
p2842
aS'2003-11-26'
p2843
aS'2003-11-28'
p2844
aS'2003-12-01'
p2845
aS'2003-12-02'
p2846
aS'2003-12-03'
p2847
aS'2003-12-04'
p2848
aS'2003-12-05'
p2849
aS'2003-12-08'
p2850
aS'2003-12-09'
p2851
aS'2003-12-10'
p2852
aS'2003-12-11'
p2853
aS'2003-12-12'
p2854
aS'2003-12-15'
p2855
aS'2003-12-16'
p2856
aS'2003-12-17'
p2857
aS'2003-12-18'
p2858
aS'2003-12-19'
p2859
aS'2003-12-22'
p2860
aS'2003-12-23'
p2861
aS'2003-12-24'
p2862
aS'2003-12-26'
p2863
aS'2003-12-29'
p2864
aS'2003-12-30'
p2865
aS'2003-12-31'
p2866
aS'2004-01-02'
p2867
aS'2004-01-05'
p2868
aS'2004-01-06'
p2869
aS'2004-01-07'
p2870
aS'2004-01-08'
p2871
aS'2004-01-09'
p2872
aS'2004-01-12'
p2873
aS'2004-01-13'
p2874
aS'2004-01-14'
p2875
aS'2004-01-15'
p2876
aS'2004-01-16'
p2877
aS'2004-01-20'
p2878
aS'2004-01-21'
p2879
aS'2004-01-22'
p2880
aS'2004-01-23'
p2881
aS'2004-01-26'
p2882
aS'2004-01-27'
p2883
aS'2004-01-28'
p2884
aS'2004-01-29'
p2885
aS'2004-01-30'
p2886
aS'2004-02-02'
p2887
aS'2004-02-03'
p2888
aS'2004-02-04'
p2889
aS'2004-02-05'
p2890
aS'2004-02-06'
p2891
aS'2004-02-09'
p2892
aS'2004-02-10'
p2893
aS'2004-02-11'
p2894
aS'2004-02-12'
p2895
aS'2004-02-13'
p2896
aS'2004-02-17'
p2897
aS'2004-02-18'
p2898
aS'2004-02-19'
p2899
aS'2004-02-20'
p2900
aS'2004-02-23'
p2901
aS'2004-02-24'
p2902
aS'2004-02-25'
p2903
aS'2004-02-26'
p2904
aS'2004-02-27'
p2905
aS'2004-03-01'
p2906
aS'2004-03-02'
p2907
aS'2004-03-03'
p2908
aS'2004-03-04'
p2909
aS'2004-03-05'
p2910
aS'2004-03-08'
p2911
aS'2004-03-09'
p2912
aS'2004-03-10'
p2913
aS'2004-03-11'
p2914
aS'2004-03-12'
p2915
aS'2004-03-15'
p2916
aS'2004-03-16'
p2917
aS'2004-03-17'
p2918
aS'2004-03-18'
p2919
aS'2004-03-19'
p2920
aS'2004-03-22'
p2921
aS'2004-03-23'
p2922
aS'2004-03-24'
p2923
aS'2004-03-25'
p2924
aS'2004-03-26'
p2925
aS'2004-03-29'
p2926
aS'2004-03-30'
p2927
aS'2004-03-31'
p2928
aS'2004-04-01'
p2929
aS'2004-04-02'
p2930
aS'2004-04-05'
p2931
aS'2004-04-06'
p2932
aS'2004-04-07'
p2933
aS'2004-04-08'
p2934
aS'2004-04-12'
p2935
aS'2004-04-13'
p2936
aS'2004-04-14'
p2937
aS'2004-04-15'
p2938
aS'2004-04-16'
p2939
aS'2004-04-19'
p2940
aS'2004-04-20'
p2941
aS'2004-04-21'
p2942
aS'2004-04-22'
p2943
aS'2004-04-23'
p2944
aS'2004-04-26'
p2945
aS'2004-04-27'
p2946
aS'2004-04-28'
p2947
aS'2004-04-29'
p2948
aS'2004-04-30'
p2949
aS'2004-05-03'
p2950
aS'2004-05-04'
p2951
aS'2004-05-05'
p2952
aS'2004-05-06'
p2953
aS'2004-05-07'
p2954
aS'2004-05-10'
p2955
aS'2004-05-11'
p2956
aS'2004-05-12'
p2957
aS'2004-05-13'
p2958
aS'2004-05-14'
p2959
aS'2004-05-17'
p2960
aS'2004-05-18'
p2961
aS'2004-05-19'
p2962
aS'2004-05-20'
p2963
aS'2004-05-21'
p2964
aS'2004-05-24'
p2965
aS'2004-05-25'
p2966
aS'2004-05-26'
p2967
aS'2004-05-27'
p2968
aS'2004-05-28'
p2969
aS'2004-06-01'
p2970
aS'2004-06-02'
p2971
aS'2004-06-03'
p2972
aS'2004-06-04'
p2973
aS'2004-06-07'
p2974
aS'2004-06-08'
p2975
aS'2004-06-09'
p2976
aS'2004-06-10'
p2977
aS'2004-06-14'
p2978
aS'2004-06-15'
p2979
aS'2004-06-16'
p2980
aS'2004-06-17'
p2981
aS'2004-06-18'
p2982
aS'2004-06-21'
p2983
aS'2004-06-22'
p2984
aS'2004-06-23'
p2985
aS'2004-06-24'
p2986
aS'2004-06-25'
p2987
aS'2004-06-28'
p2988
aS'2004-06-29'
p2989
aS'2004-06-30'
p2990
aS'2004-07-01'
p2991
aS'2004-07-02'
p2992
aS'2004-07-06'
p2993
aS'2004-07-07'
p2994
aS'2004-07-08'
p2995
aS'2004-07-09'
p2996
aS'2004-07-12'
p2997
aS'2004-07-13'
p2998
aS'2004-07-14'
p2999
aS'2004-07-15'
p3000
aS'2004-07-16'
p3001
aS'2004-07-19'
p3002
aS'2004-07-20'
p3003
aS'2004-07-21'
p3004
aS'2004-07-22'
p3005
aS'2004-07-23'
p3006
aS'2004-07-26'
p3007
aS'2004-07-27'
p3008
aS'2004-07-28'
p3009
aS'2004-07-29'
p3010
aS'2004-07-30'
p3011
aS'2004-08-02'
p3012
aS'2004-08-03'
p3013
aS'2004-08-04'
p3014
aS'2004-08-05'
p3015
aS'2004-08-06'
p3016
aS'2004-08-09'
p3017
aS'2004-08-10'
p3018
aS'2004-08-11'
p3019
aS'2004-08-12'
p3020
aS'2004-08-13'
p3021
aS'2004-08-16'
p3022
aS'2004-08-17'
p3023
aS'2004-08-18'
p3024
aS'2004-08-19'
p3025
aS'2004-08-20'
p3026
aS'2004-08-23'
p3027
aS'2004-08-24'
p3028
aS'2004-08-25'
p3029
aS'2004-08-26'
p3030
aS'2004-08-27'
p3031
aS'2004-08-30'
p3032
aS'2004-08-31'
p3033
aS'2004-09-01'
p3034
aS'2004-09-02'
p3035
aS'2004-09-03'
p3036
aS'2004-09-07'
p3037
aS'2004-09-08'
p3038
aS'2004-09-09'
p3039
aS'2004-09-10'
p3040
aS'2004-09-13'
p3041
aS'2004-09-14'
p3042
aS'2004-09-15'
p3043
aS'2004-09-16'
p3044
aS'2004-09-17'
p3045
aS'2004-09-20'
p3046
aS'2004-09-21'
p3047
aS'2004-09-22'
p3048
aS'2004-09-23'
p3049
aS'2004-09-24'
p3050
aS'2004-09-27'
p3051
aS'2004-09-28'
p3052
aS'2004-09-29'
p3053
aS'2004-09-30'
p3054
aS'2004-10-01'
p3055
aS'2004-10-04'
p3056
aS'2004-10-05'
p3057
aS'2004-10-06'
p3058
aS'2004-10-07'
p3059
aS'2004-10-08'
p3060
aS'2004-10-11'
p3061
aS'2004-10-12'
p3062
aS'2004-10-13'
p3063
aS'2004-10-14'
p3064
aS'2004-10-15'
p3065
aS'2004-10-18'
p3066
aS'2004-10-19'
p3067
aS'2004-10-20'
p3068
aS'2004-10-21'
p3069
aS'2004-10-22'
p3070
aS'2004-10-25'
p3071
aS'2004-10-26'
p3072
aS'2004-10-27'
p3073
aS'2004-10-28'
p3074
aS'2004-10-29'
p3075
aS'2004-11-01'
p3076
aS'2004-11-02'
p3077
aS'2004-11-03'
p3078
aS'2004-11-04'
p3079
aS'2004-11-05'
p3080
aS'2004-11-08'
p3081
aS'2004-11-09'
p3082
aS'2004-11-10'
p3083
aS'2004-11-11'
p3084
aS'2004-11-12'
p3085
aS'2004-11-15'
p3086
aS'2004-11-16'
p3087
aS'2004-11-17'
p3088
aS'2004-11-18'
p3089
aS'2004-11-19'
p3090
aS'2004-11-22'
p3091
aS'2004-11-23'
p3092
aS'2004-11-24'
p3093
aS'2004-11-26'
p3094
aS'2004-11-29'
p3095
aS'2004-11-30'
p3096
aS'2004-12-01'
p3097
aS'2004-12-02'
p3098
aS'2004-12-03'
p3099
aS'2004-12-06'
p3100
aS'2004-12-07'
p3101
aS'2004-12-08'
p3102
aS'2004-12-09'
p3103
aS'2004-12-10'
p3104
aS'2004-12-13'
p3105
aS'2004-12-14'
p3106
aS'2004-12-15'
p3107
aS'2004-12-16'
p3108
aS'2004-12-17'
p3109
aS'2004-12-20'
p3110
aS'2004-12-21'
p3111
aS'2004-12-22'
p3112
aS'2004-12-23'
p3113
aS'2004-12-27'
p3114
aS'2004-12-28'
p3115
aS'2004-12-29'
p3116
aS'2004-12-30'
p3117
aS'2004-12-31'
p3118
aS'2005-01-03'
p3119
aS'2005-01-04'
p3120
aS'2005-01-05'
p3121
aS'2005-01-06'
p3122
aS'2005-01-07'
p3123
aS'2005-01-10'
p3124
aS'2005-01-11'
p3125
aS'2005-01-12'
p3126
aS'2005-01-13'
p3127
aS'2005-01-14'
p3128
aS'2005-01-18'
p3129
aS'2005-01-19'
p3130
aS'2005-01-20'
p3131
aS'2005-01-21'
p3132
aS'2005-01-24'
p3133
aS'2005-01-25'
p3134
aS'2005-01-26'
p3135
aS'2005-01-27'
p3136
aS'2005-01-28'
p3137
aS'2005-01-31'
p3138
aS'2005-02-01'
p3139
aS'2005-02-02'
p3140
aS'2005-02-03'
p3141
aS'2005-02-04'
p3142
aS'2005-02-07'
p3143
aS'2005-02-08'
p3144
aS'2005-02-09'
p3145
aS'2005-02-10'
p3146
aS'2005-02-11'
p3147
aS'2005-02-14'
p3148
aS'2005-02-15'
p3149
aS'2005-02-16'
p3150
aS'2005-02-17'
p3151
aS'2005-02-18'
p3152
aS'2005-02-22'
p3153
aS'2005-02-23'
p3154
aS'2005-02-24'
p3155
aS'2005-02-25'
p3156
aS'2005-02-28'
p3157
aS'2005-03-01'
p3158
aS'2005-03-02'
p3159
aS'2005-03-03'
p3160
aS'2005-03-04'
p3161
aS'2005-03-07'
p3162
aS'2005-03-08'
p3163
aS'2005-03-09'
p3164
aS'2005-03-10'
p3165
aS'2005-03-11'
p3166
aS'2005-03-14'
p3167
aS'2005-03-15'
p3168
aS'2005-03-16'
p3169
aS'2005-03-17'
p3170
aS'2005-03-18'
p3171
aS'2005-03-21'
p3172
aS'2005-03-22'
p3173
aS'2005-03-23'
p3174
aS'2005-03-24'
p3175
aS'2005-03-28'
p3176
aS'2005-03-29'
p3177
aS'2005-03-30'
p3178
aS'2005-03-31'
p3179
aS'2005-04-01'
p3180
aS'2005-04-04'
p3181
aS'2005-04-05'
p3182
aS'2005-04-06'
p3183
aS'2005-04-07'
p3184
aS'2005-04-08'
p3185
aS'2005-04-11'
p3186
aS'2005-04-12'
p3187
aS'2005-04-13'
p3188
aS'2005-04-14'
p3189
aS'2005-04-15'
p3190
aS'2005-04-18'
p3191
aS'2005-04-19'
p3192
aS'2005-04-20'
p3193
aS'2005-04-21'
p3194
aS'2005-04-22'
p3195
aS'2005-04-25'
p3196
aS'2005-04-26'
p3197
aS'2005-04-27'
p3198
aS'2005-04-28'
p3199
aS'2005-04-29'
p3200
aS'2005-05-02'
p3201
aS'2005-05-03'
p3202
aS'2005-05-04'
p3203
aS'2005-05-05'
p3204
aS'2005-05-06'
p3205
aS'2005-05-09'
p3206
aS'2005-05-10'
p3207
aS'2005-05-11'
p3208
aS'2005-05-12'
p3209
aS'2005-05-13'
p3210
aS'2005-05-16'
p3211
aS'2005-05-17'
p3212
aS'2005-05-18'
p3213
aS'2005-05-19'
p3214
aS'2005-05-20'
p3215
aS'2005-05-23'
p3216
aS'2005-05-24'
p3217
aS'2005-05-25'
p3218
aS'2005-05-26'
p3219
aS'2005-05-27'
p3220
aS'2005-05-31'
p3221
aS'2005-06-01'
p3222
aS'2005-06-02'
p3223
aS'2005-06-03'
p3224
aS'2005-06-06'
p3225
aS'2005-06-07'
p3226
aS'2005-06-08'
p3227
aS'2005-06-09'
p3228
aS'2005-06-10'
p3229
aS'2005-06-13'
p3230
aS'2005-06-14'
p3231
aS'2005-06-15'
p3232
aS'2005-06-16'
p3233
aS'2005-06-17'
p3234
aS'2005-06-20'
p3235
aS'2005-06-21'
p3236
aS'2005-06-22'
p3237
aS'2005-06-23'
p3238
aS'2005-06-24'
p3239
aS'2005-06-27'
p3240
aS'2005-06-28'
p3241
aS'2005-06-29'
p3242
aS'2005-06-30'
p3243
aS'2005-07-01'
p3244
aS'2005-07-05'
p3245
aS'2005-07-06'
p3246
aS'2005-07-07'
p3247
aS'2005-07-08'
p3248
aS'2005-07-11'
p3249
aS'2005-07-12'
p3250
aS'2005-07-13'
p3251
aS'2005-07-14'
p3252
aS'2005-07-15'
p3253
aS'2005-07-18'
p3254
aS'2005-07-19'
p3255
aS'2005-07-20'
p3256
aS'2005-07-21'
p3257
aS'2005-07-22'
p3258
aS'2005-07-25'
p3259
aS'2005-07-26'
p3260
aS'2005-07-27'
p3261
aS'2005-07-28'
p3262
aS'2005-07-29'
p3263
aS'2005-08-01'
p3264
aS'2005-08-02'
p3265
aS'2005-08-03'
p3266
aS'2005-08-04'
p3267
aS'2005-08-05'
p3268
aS'2005-08-08'
p3269
aS'2005-08-09'
p3270
aS'2005-08-10'
p3271
aS'2005-08-11'
p3272
aS'2005-08-12'
p3273
aS'2005-08-15'
p3274
aS'2005-08-16'
p3275
aS'2005-08-17'
p3276
aS'2005-08-18'
p3277
aS'2005-08-19'
p3278
aS'2005-08-22'
p3279
aS'2005-08-23'
p3280
aS'2005-08-24'
p3281
aS'2005-08-25'
p3282
aS'2005-08-26'
p3283
aS'2005-08-29'
p3284
aS'2005-08-30'
p3285
aS'2005-08-31'
p3286
aS'2005-09-01'
p3287
aS'2005-09-02'
p3288
aS'2005-09-06'
p3289
aS'2005-09-07'
p3290
aS'2005-09-08'
p3291
aS'2005-09-09'
p3292
aS'2005-09-12'
p3293
aS'2005-09-13'
p3294
aS'2005-09-14'
p3295
aS'2005-09-15'
p3296
aS'2005-09-16'
p3297
aS'2005-09-19'
p3298
aS'2005-09-20'
p3299
aS'2005-09-21'
p3300
aS'2005-09-22'
p3301
aS'2005-09-23'
p3302
aS'2005-09-26'
p3303
aS'2005-09-27'
p3304
aS'2005-09-28'
p3305
aS'2005-09-29'
p3306
aS'2005-09-30'
p3307
aS'2005-10-03'
p3308
aS'2005-10-04'
p3309
aS'2005-10-05'
p3310
aS'2005-10-06'
p3311
aS'2005-10-07'
p3312
aS'2005-10-10'
p3313
aS'2005-10-11'
p3314
aS'2005-10-12'
p3315
aS'2005-10-13'
p3316
aS'2005-10-14'
p3317
aS'2005-10-17'
p3318
aS'2005-10-18'
p3319
aS'2005-10-19'
p3320
aS'2005-10-20'
p3321
aS'2005-10-21'
p3322
aS'2005-10-24'
p3323
aS'2005-10-25'
p3324
aS'2005-10-26'
p3325
aS'2005-10-27'
p3326
aS'2005-10-28'
p3327
aS'2005-10-31'
p3328
aS'2005-11-01'
p3329
aS'2005-11-02'
p3330
aS'2005-11-03'
p3331
aS'2005-11-04'
p3332
aS'2005-11-07'
p3333
aS'2005-11-08'
p3334
aS'2005-11-09'
p3335
aS'2005-11-10'
p3336
aS'2005-11-11'
p3337
aS'2005-11-14'
p3338
aS'2005-11-15'
p3339
aS'2005-11-16'
p3340
aS'2005-11-17'
p3341
aS'2005-11-18'
p3342
aS'2005-11-21'
p3343
aS'2005-11-22'
p3344
aS'2005-11-23'
p3345
aS'2005-11-25'
p3346
aS'2005-11-28'
p3347
aS'2005-11-29'
p3348
aS'2005-11-30'
p3349
aS'2005-12-01'
p3350
aS'2005-12-02'
p3351
aS'2005-12-05'
p3352
aS'2005-12-06'
p3353
aS'2005-12-07'
p3354
aS'2005-12-08'
p3355
aS'2005-12-09'
p3356
aS'2005-12-12'
p3357
aS'2005-12-13'
p3358
aS'2005-12-14'
p3359
aS'2005-12-15'
p3360
aS'2005-12-16'
p3361
aS'2005-12-19'
p3362
aS'2005-12-20'
p3363
aS'2005-12-21'
p3364
aS'2005-12-22'
p3365
aS'2005-12-23'
p3366
aS'2005-12-27'
p3367
aS'2005-12-28'
p3368
aS'2005-12-29'
p3369
aS'2005-12-30'
p3370
aS'2006-01-03'
p3371
aS'2006-01-04'
p3372
aS'2006-01-05'
p3373
aS'2006-01-06'
p3374
aS'2006-01-09'
p3375
aS'2006-01-10'
p3376
aS'2006-01-11'
p3377
aS'2006-01-12'
p3378
aS'2006-01-13'
p3379
aS'2006-01-17'
p3380
aS'2006-01-18'
p3381
aS'2006-01-19'
p3382
aS'2006-01-20'
p3383
aS'2006-01-23'
p3384
aS'2006-01-24'
p3385
aS'2006-01-25'
p3386
aS'2006-01-26'
p3387
aS'2006-01-27'
p3388
aS'2006-01-30'
p3389
aS'2006-01-31'
p3390
aS'2006-02-01'
p3391
aS'2006-02-02'
p3392
aS'2006-02-03'
p3393
aS'2006-02-06'
p3394
aS'2006-02-07'
p3395
aS'2006-02-08'
p3396
aS'2006-02-09'
p3397
aS'2006-02-10'
p3398
aS'2006-02-13'
p3399
aS'2006-02-14'
p3400
aS'2006-02-15'
p3401
aS'2006-02-16'
p3402
aS'2006-02-17'
p3403
aS'2006-02-21'
p3404
aS'2006-02-22'
p3405
aS'2006-02-23'
p3406
aS'2006-02-24'
p3407
aS'2006-02-27'
p3408
aS'2006-02-28'
p3409
aS'2006-03-01'
p3410
aS'2006-03-02'
p3411
aS'2006-03-03'
p3412
aS'2006-03-06'
p3413
aS'2006-03-07'
p3414
aS'2006-03-08'
p3415
aS'2006-03-09'
p3416
aS'2006-03-10'
p3417
aS'2006-03-13'
p3418
aS'2006-03-14'
p3419
aS'2006-03-15'
p3420
aS'2006-03-16'
p3421
aS'2006-03-17'
p3422
aS'2006-03-20'
p3423
aS'2006-03-21'
p3424
aS'2006-03-22'
p3425
aS'2006-03-23'
p3426
aS'2006-03-24'
p3427
aS'2006-03-27'
p3428
aS'2006-03-28'
p3429
aS'2006-03-29'
p3430
aS'2006-03-30'
p3431
aS'2006-03-31'
p3432
aS'2006-04-03'
p3433
aS'2006-04-04'
p3434
aS'2006-04-05'
p3435
aS'2006-04-06'
p3436
aS'2006-04-07'
p3437
aS'2006-04-10'
p3438
aS'2006-04-11'
p3439
aS'2006-04-12'
p3440
aS'2006-04-13'
p3441
aS'2006-04-17'
p3442
aS'2006-04-18'
p3443
aS'2006-04-19'
p3444
aS'2006-04-20'
p3445
aS'2006-04-21'
p3446
aS'2006-04-24'
p3447
aS'2006-04-25'
p3448
aS'2006-04-26'
p3449
aS'2006-04-27'
p3450
aS'2006-04-28'
p3451
aS'2006-05-01'
p3452
aS'2006-05-02'
p3453
aS'2006-05-03'
p3454
aS'2006-05-04'
p3455
aS'2006-05-05'
p3456
aS'2006-05-08'
p3457
aS'2006-05-09'
p3458
aS'2006-05-10'
p3459
aS'2006-05-11'
p3460
aS'2006-05-12'
p3461
aS'2006-05-15'
p3462
aS'2006-05-16'
p3463
aS'2006-05-17'
p3464
aS'2006-05-18'
p3465
aS'2006-05-19'
p3466
aS'2006-05-22'
p3467
aS'2006-05-23'
p3468
aS'2006-05-24'
p3469
aS'2006-05-25'
p3470
aS'2006-05-26'
p3471
aS'2006-05-30'
p3472
aS'2006-05-31'
p3473
aS'2006-06-01'
p3474
aS'2006-06-02'
p3475
aS'2006-06-05'
p3476
aS'2006-06-06'
p3477
aS'2006-06-07'
p3478
aS'2006-06-08'
p3479
aS'2006-06-09'
p3480
aS'2006-06-12'
p3481
aS'2006-06-13'
p3482
aS'2006-06-14'
p3483
aS'2006-06-15'
p3484
aS'2006-06-16'
p3485
aS'2006-06-19'
p3486
aS'2006-06-20'
p3487
aS'2006-06-21'
p3488
aS'2006-06-22'
p3489
aS'2006-06-23'
p3490
aS'2006-06-26'
p3491
aS'2006-06-27'
p3492
aS'2006-06-28'
p3493
aS'2006-06-29'
p3494
aS'2006-06-30'
p3495
aS'2006-07-03'
p3496
aS'2006-07-05'
p3497
aS'2006-07-06'
p3498
aS'2006-07-07'
p3499
aS'2006-07-10'
p3500
aS'2006-07-11'
p3501
aS'2006-07-12'
p3502
aS'2006-07-13'
p3503
aS'2006-07-14'
p3504
aS'2006-07-17'
p3505
aS'2006-07-18'
p3506
aS'2006-07-19'
p3507
aS'2006-07-20'
p3508
aS'2006-07-21'
p3509
aS'2006-07-24'
p3510
aS'2006-07-25'
p3511
aS'2006-07-26'
p3512
aS'2006-07-27'
p3513
aS'2006-07-28'
p3514
aS'2006-07-31'
p3515
aS'2006-08-01'
p3516
aS'2006-08-02'
p3517
aS'2006-08-03'
p3518
aS'2006-08-04'
p3519
aS'2006-08-07'
p3520
aS'2006-08-08'
p3521
aS'2006-08-09'
p3522
aS'2006-08-10'
p3523
aS'2006-08-11'
p3524
aS'2006-08-14'
p3525
aS'2006-08-15'
p3526
aS'2006-08-16'
p3527
aS'2006-08-17'
p3528
aS'2006-08-18'
p3529
aS'2006-08-21'
p3530
aS'2006-08-22'
p3531
aS'2006-08-23'
p3532
aS'2006-08-24'
p3533
aS'2006-08-25'
p3534
aS'2006-08-28'
p3535
aS'2006-08-29'
p3536
aS'2006-08-30'
p3537
aS'2006-08-31'
p3538
aS'2006-09-01'
p3539
aS'2006-09-05'
p3540
aS'2006-09-06'
p3541
aS'2006-09-07'
p3542
aS'2006-09-08'
p3543
aS'2006-09-11'
p3544
aS'2006-09-12'
p3545
aS'2006-09-13'
p3546
aS'2006-09-14'
p3547
aS'2006-09-15'
p3548
aS'2006-09-18'
p3549
aS'2006-09-19'
p3550
aS'2006-09-20'
p3551
aS'2006-09-21'
p3552
aS'2006-09-22'
p3553
aS'2006-09-25'
p3554
aS'2006-09-26'
p3555
aS'2006-09-27'
p3556
aS'2006-09-28'
p3557
aS'2006-09-29'
p3558
aS'2006-10-02'
p3559
aS'2006-10-03'
p3560
aS'2006-10-04'
p3561
aS'2006-10-05'
p3562
aS'2006-10-06'
p3563
aS'2006-10-09'
p3564
aS'2006-10-10'
p3565
aS'2006-10-11'
p3566
aS'2006-10-12'
p3567
aS'2006-10-13'
p3568
aS'2006-10-16'
p3569
aS'2006-10-17'
p3570
aS'2006-10-18'
p3571
aS'2006-10-19'
p3572
aS'2006-10-20'
p3573
aS'2006-10-23'
p3574
aS'2006-10-24'
p3575
aS'2006-10-25'
p3576
aS'2006-10-26'
p3577
aS'2006-10-27'
p3578
aS'2006-10-30'
p3579
aS'2006-10-31'
p3580
aS'2006-11-01'
p3581
aS'2006-11-02'
p3582
aS'2006-11-03'
p3583
aS'2006-11-06'
p3584
aS'2006-11-07'
p3585
aS'2006-11-08'
p3586
aS'2006-11-09'
p3587
aS'2006-11-10'
p3588
aS'2006-11-13'
p3589
aS'2006-11-14'
p3590
aS'2006-11-15'
p3591
aS'2006-11-16'
p3592
aS'2006-11-17'
p3593
aS'2006-11-20'
p3594
aS'2006-11-21'
p3595
aS'2006-11-22'
p3596
aS'2006-11-24'
p3597
aS'2006-11-27'
p3598
aS'2006-11-28'
p3599
aS'2006-11-29'
p3600
aS'2006-11-30'
p3601
aS'2006-12-01'
p3602
aS'2006-12-04'
p3603
aS'2006-12-05'
p3604
aS'2006-12-06'
p3605
aS'2006-12-07'
p3606
aS'2006-12-08'
p3607
aS'2006-12-11'
p3608
aS'2006-12-12'
p3609
aS'2006-12-13'
p3610
aS'2006-12-14'
p3611
aS'2006-12-15'
p3612
aS'2006-12-18'
p3613
aS'2006-12-19'
p3614
aS'2006-12-20'
p3615
aS'2006-12-21'
p3616
aS'2006-12-22'
p3617
aS'2006-12-26'
p3618
aS'2006-12-27'
p3619
aS'2006-12-28'
p3620
aS'2006-12-29'
p3621
aS'2007-01-03'
p3622
aS'2007-01-04'
p3623
aS'2007-01-05'
p3624
aS'2007-01-08'
p3625
aS'2007-01-09'
p3626
aS'2007-01-10'
p3627
aS'2007-01-11'
p3628
aS'2007-01-12'
p3629
aS'2007-01-16'
p3630
aS'2007-01-17'
p3631
aS'2007-01-18'
p3632
aS'2007-01-19'
p3633
aS'2007-01-22'
p3634
aS'2007-01-23'
p3635
aS'2007-01-24'
p3636
aS'2007-01-25'
p3637
aS'2007-01-26'
p3638
aS'2007-01-29'
p3639
aS'2007-01-30'
p3640
aS'2007-01-31'
p3641
aS'2007-02-01'
p3642
aS'2007-02-02'
p3643
aS'2007-02-05'
p3644
aS'2007-02-06'
p3645
aS'2007-02-07'
p3646
aS'2007-02-08'
p3647
aS'2007-02-09'
p3648
aS'2007-02-12'
p3649
aS'2007-02-13'
p3650
aS'2007-02-14'
p3651
aS'2007-02-15'
p3652
aS'2007-02-16'
p3653
aS'2007-02-20'
p3654
aS'2007-02-21'
p3655
aS'2007-02-22'
p3656
aS'2007-02-23'
p3657
aS'2007-02-26'
p3658
aS'2007-02-27'
p3659
aS'2007-02-28'
p3660
aS'2007-03-01'
p3661
aS'2007-03-02'
p3662
aS'2007-03-05'
p3663
aS'2007-03-06'
p3664
aS'2007-03-07'
p3665
aS'2007-03-08'
p3666
aS'2007-03-09'
p3667
aS'2007-03-12'
p3668
aS'2007-03-13'
p3669
aS'2007-03-14'
p3670
aS'2007-03-15'
p3671
aS'2007-03-16'
p3672
aS'2007-03-19'
p3673
aS'2007-03-20'
p3674
aS'2007-03-21'
p3675
aS'2007-03-22'
p3676
aS'2007-03-23'
p3677
aS'2007-03-26'
p3678
aS'2007-03-27'
p3679
aS'2007-03-28'
p3680
aS'2007-03-29'
p3681
aS'2007-03-30'
p3682
aS'2007-04-02'
p3683
aS'2007-04-03'
p3684
aS'2007-04-04'
p3685
aS'2007-04-05'
p3686
aS'2007-04-09'
p3687
aS'2007-04-10'
p3688
aS'2007-04-11'
p3689
aS'2007-04-12'
p3690
aS'2007-04-13'
p3691
aS'2007-04-16'
p3692
aS'2007-04-17'
p3693
aS'2007-04-18'
p3694
aS'2007-04-19'
p3695
aS'2007-04-20'
p3696
aS'2007-04-23'
p3697
aS'2007-04-24'
p3698
aS'2007-04-25'
p3699
aS'2007-04-26'
p3700
aS'2007-04-27'
p3701
aS'2007-04-30'
p3702
aS'2007-05-01'
p3703
aS'2007-05-02'
p3704
aS'2007-05-03'
p3705
aS'2007-05-04'
p3706
aS'2007-05-07'
p3707
aS'2007-05-08'
p3708
aS'2007-05-09'
p3709
aS'2007-05-10'
p3710
aS'2007-05-11'
p3711
aS'2007-05-14'
p3712
aS'2007-05-15'
p3713
aS'2007-05-16'
p3714
aS'2007-05-17'
p3715
aS'2007-05-18'
p3716
aS'2007-05-21'
p3717
aS'2007-05-22'
p3718
aS'2007-05-23'
p3719
aS'2007-05-24'
p3720
aS'2007-05-25'
p3721
aS'2007-05-29'
p3722
aS'2007-05-30'
p3723
aS'2007-05-31'
p3724
aS'2007-06-01'
p3725
aS'2007-06-04'
p3726
aS'2007-06-05'
p3727
aS'2007-06-06'
p3728
aS'2007-06-07'
p3729
aS'2007-06-08'
p3730
aS'2007-06-11'
p3731
aS'2007-06-12'
p3732
aS'2007-06-13'
p3733
aS'2007-06-14'
p3734
aS'2007-06-15'
p3735
aS'2007-06-18'
p3736
aS'2007-06-19'
p3737
aS'2007-06-20'
p3738
aS'2007-06-21'
p3739
aS'2007-06-22'
p3740
aS'2007-06-25'
p3741
aS'2007-06-26'
p3742
aS'2007-06-27'
p3743
aS'2007-06-28'
p3744
aS'2007-06-29'
p3745
aS'2007-07-02'
p3746
aS'2007-07-03'
p3747
aS'2007-07-05'
p3748
aS'2007-07-06'
p3749
aS'2007-07-09'
p3750
aS'2007-07-10'
p3751
aS'2007-07-11'
p3752
aS'2007-07-12'
p3753
aS'2007-07-13'
p3754
aS'2007-07-16'
p3755
aS'2007-07-17'
p3756
aS'2007-07-18'
p3757
aS'2007-07-19'
p3758
aS'2007-07-20'
p3759
aS'2007-07-23'
p3760
aS'2007-07-24'
p3761
aS'2007-07-25'
p3762
aS'2007-07-26'
p3763
aS'2007-07-27'
p3764
aS'2007-07-30'
p3765
aS'2007-07-31'
p3766
aS'2007-08-01'
p3767
aS'2007-08-02'
p3768
aS'2007-08-03'
p3769
aS'2007-08-06'
p3770
aS'2007-08-07'
p3771
aS'2007-08-08'
p3772
aS'2007-08-09'
p3773
aS'2007-08-10'
p3774
aS'2007-08-13'
p3775
aS'2007-08-14'
p3776
aS'2007-08-15'
p3777
aS'2007-08-16'
p3778
aS'2007-08-17'
p3779
aS'2007-08-20'
p3780
aS'2007-08-21'
p3781
aS'2007-08-22'
p3782
aS'2007-08-23'
p3783
aS'2007-08-24'
p3784
aS'2007-08-27'
p3785
aS'2007-08-28'
p3786
aS'2007-08-29'
p3787
aS'2007-08-30'
p3788
aS'2007-08-31'
p3789
aS'2007-09-04'
p3790
aS'2007-09-05'
p3791
aS'2007-09-06'
p3792
aS'2007-09-07'
p3793
aS'2007-09-10'
p3794
aS'2007-09-11'
p3795
aS'2007-09-12'
p3796
aS'2007-09-13'
p3797
aS'2007-09-14'
p3798
aS'2007-09-17'
p3799
aS'2007-09-18'
p3800
aS'2007-09-19'
p3801
aS'2007-09-20'
p3802
aS'2007-09-21'
p3803
aS'2007-09-24'
p3804
aS'2007-09-25'
p3805
aS'2007-09-26'
p3806
aS'2007-09-27'
p3807
aS'2007-09-28'
p3808
aS'2007-10-01'
p3809
aS'2007-10-02'
p3810
aS'2007-10-03'
p3811
aS'2007-10-04'
p3812
aS'2007-10-05'
p3813
aS'2007-10-08'
p3814
aS'2007-10-09'
p3815
aS'2007-10-10'
p3816
aS'2007-10-11'
p3817
aS'2007-10-12'
p3818
aS'2007-10-15'
p3819
aS'2007-10-16'
p3820
aS'2007-10-17'
p3821
aS'2007-10-18'
p3822
aS'2007-10-19'
p3823
aS'2007-10-22'
p3824
aS'2007-10-23'
p3825
aS'2007-10-24'
p3826
aS'2007-10-25'
p3827
aS'2007-10-26'
p3828
aS'2007-10-29'
p3829
aS'2007-10-30'
p3830
aS'2007-10-31'
p3831
aS'2007-11-01'
p3832
aS'2007-11-02'
p3833
aS'2007-11-05'
p3834
aS'2007-11-06'
p3835
aS'2007-11-07'
p3836
aS'2007-11-08'
p3837
aS'2007-11-09'
p3838
aS'2007-11-12'
p3839
aS'2007-11-13'
p3840
aS'2007-11-14'
p3841
aS'2007-11-15'
p3842
aS'2007-11-16'
p3843
aS'2007-11-19'
p3844
aS'2007-11-20'
p3845
aS'2007-11-21'
p3846
aS'2007-11-23'
p3847
aS'2007-11-26'
p3848
aS'2007-11-27'
p3849
aS'2007-11-28'
p3850
aS'2007-11-29'
p3851
aS'2007-11-30'
p3852
aS'2007-12-03'
p3853
aS'2007-12-04'
p3854
aS'2007-12-05'
p3855
aS'2007-12-06'
p3856
aS'2007-12-07'
p3857
aS'2007-12-10'
p3858
aS'2007-12-11'
p3859
aS'2007-12-12'
p3860
aS'2007-12-13'
p3861
aS'2007-12-14'
p3862
aS'2007-12-17'
p3863
aS'2007-12-18'
p3864
aS'2007-12-19'
p3865
aS'2007-12-20'
p3866
aS'2007-12-21'
p3867
aS'2007-12-24'
p3868
aS'2007-12-26'
p3869
aS'2007-12-27'
p3870
aS'2007-12-28'
p3871
aS'2007-12-31'
p3872
aS'2008-01-02'
p3873
aS'2008-01-03'
p3874
aS'2008-01-04'
p3875
aS'2008-01-07'
p3876
aS'2008-01-08'
p3877
aS'2008-01-09'
p3878
aS'2008-01-10'
p3879
aS'2008-01-11'
p3880
aS'2008-01-14'
p3881
aS'2008-01-15'
p3882
aS'2008-01-16'
p3883
aS'2008-01-17'
p3884
aS'2008-01-18'
p3885
aS'2008-01-22'
p3886
aS'2008-01-23'
p3887
aS'2008-01-24'
p3888
aS'2008-01-25'
p3889
aS'2008-01-28'
p3890
aS'2008-01-29'
p3891
aS'2008-01-30'
p3892
aS'2008-01-31'
p3893
aS'2008-02-01'
p3894
aS'2008-02-04'
p3895
aS'2008-02-05'
p3896
aS'2008-02-06'
p3897
aS'2008-02-07'
p3898
aS'2008-02-08'
p3899
aS'2008-02-11'
p3900
aS'2008-02-12'
p3901
aS'2008-02-13'
p3902
aS'2008-02-14'
p3903
aS'2008-02-15'
p3904
aS'2008-02-19'
p3905
aS'2008-02-20'
p3906
aS'2008-02-21'
p3907
aS'2008-02-22'
p3908
aS'2008-02-25'
p3909
aS'2008-02-26'
p3910
aS'2008-02-27'
p3911
aS'2008-02-28'
p3912
aS'2008-02-29'
p3913
aS'2008-03-03'
p3914
aS'2008-03-04'
p3915
aS'2008-03-05'
p3916
aS'2008-03-06'
p3917
aS'2008-03-07'
p3918
aS'2008-03-10'
p3919
aS'2008-03-11'
p3920
aS'2008-03-12'
p3921
aS'2008-03-13'
p3922
aS'2008-03-14'
p3923
aS'2008-03-17'
p3924
aS'2008-03-18'
p3925
aS'2008-03-19'
p3926
aS'2008-03-20'
p3927
aS'2008-03-24'
p3928
aS'2008-03-25'
p3929
aS'2008-03-26'
p3930
aS'2008-03-27'
p3931
aS'2008-03-28'
p3932
aS'2008-03-31'
p3933
aS'2008-04-01'
p3934
aS'2008-04-02'
p3935
aS'2008-04-03'
p3936
aS'2008-04-04'
p3937
aS'2008-04-07'
p3938
aS'2008-04-08'
p3939
aS'2008-04-09'
p3940
aS'2008-04-10'
p3941
aS'2008-04-11'
p3942
aS'2008-04-14'
p3943
aS'2008-04-15'
p3944
aS'2008-04-16'
p3945
aS'2008-04-17'
p3946
aS'2008-04-18'
p3947
aS'2008-04-21'
p3948
aS'2008-04-22'
p3949
aS'2008-04-23'
p3950
aS'2008-04-24'
p3951
aS'2008-04-25'
p3952
aS'2008-04-28'
p3953
aS'2008-04-29'
p3954
aS'2008-04-30'
p3955
aS'2008-05-01'
p3956
aS'2008-05-02'
p3957
aS'2008-05-05'
p3958
aS'2008-05-06'
p3959
aS'2008-05-07'
p3960
aS'2008-05-08'
p3961
aS'2008-05-09'
p3962
aS'2008-05-12'
p3963
aS'2008-05-13'
p3964
aS'2008-05-14'
p3965
aS'2008-05-15'
p3966
aS'2008-05-16'
p3967
aS'2008-05-19'
p3968
aS'2008-05-20'
p3969
aS'2008-05-21'
p3970
aS'2008-05-22'
p3971
aS'2008-05-23'
p3972
aS'2008-05-27'
p3973
aS'2008-05-28'
p3974
aS'2008-05-29'
p3975
aS'2008-05-30'
p3976
aS'2008-06-02'
p3977
aS'2008-06-03'
p3978
aS'2008-06-04'
p3979
aS'2008-06-05'
p3980
aS'2008-06-06'
p3981
aS'2008-06-09'
p3982
aS'2008-06-10'
p3983
aS'2008-06-11'
p3984
aS'2008-06-12'
p3985
aS'2008-06-13'
p3986
aS'2008-06-16'
p3987
aS'2008-06-17'
p3988
aS'2008-06-18'
p3989
aS'2008-06-19'
p3990
aS'2008-06-20'
p3991
aS'2008-06-23'
p3992
aS'2008-06-24'
p3993
aS'2008-06-25'
p3994
aS'2008-06-26'
p3995
aS'2008-06-27'
p3996
aS'2008-06-30'
p3997
aS'2008-07-01'
p3998
aS'2008-07-02'
p3999
aS'2008-07-03'
p4000
aS'2008-07-07'
p4001
aS'2008-07-08'
p4002
aS'2008-07-09'
p4003
aS'2008-07-10'
p4004
aS'2008-07-11'
p4005
aS'2008-07-14'
p4006
aS'2008-07-15'
p4007
aS'2008-07-16'
p4008
aS'2008-07-17'
p4009
aS'2008-07-18'
p4010
aS'2008-07-21'
p4011
aS'2008-07-22'
p4012
aS'2008-07-23'
p4013
aS'2008-07-24'
p4014
aS'2008-07-25'
p4015
aS'2008-07-28'
p4016
aS'2008-07-29'
p4017
aS'2008-07-30'
p4018
aS'2008-07-31'
p4019
aS'2008-08-01'
p4020
aS'2008-08-04'
p4021
aS'2008-08-05'
p4022
aS'2008-08-06'
p4023
aS'2008-08-07'
p4024
aS'2008-08-08'
p4025
aS'2008-08-11'
p4026
aS'2008-08-12'
p4027
aS'2008-08-13'
p4028
aS'2008-08-14'
p4029
aS'2008-08-15'
p4030
aS'2008-08-18'
p4031
aS'2008-08-19'
p4032
aS'2008-08-20'
p4033
aS'2008-08-21'
p4034
aS'2008-08-22'
p4035
aS'2008-08-25'
p4036
aS'2008-08-26'
p4037
aS'2008-08-27'
p4038
aS'2008-08-28'
p4039
aS'2008-08-29'
p4040
aS'2008-09-02'
p4041
aS'2008-09-03'
p4042
aS'2008-09-04'
p4043
aS'2008-09-05'
p4044
aS'2008-09-08'
p4045
aS'2008-09-09'
p4046
aS'2008-09-10'
p4047
aS'2008-09-11'
p4048
aS'2008-09-12'
p4049
aS'2008-09-15'
p4050
aS'2008-09-16'
p4051
aS'2008-09-17'
p4052
aS'2008-09-18'
p4053
aS'2008-09-19'
p4054
aS'2008-09-22'
p4055
aS'2008-09-23'
p4056
aS'2008-09-24'
p4057
aS'2008-09-25'
p4058
aS'2008-09-26'
p4059
aS'2008-09-29'
p4060
aS'2008-09-30'
p4061
aS'2008-10-01'
p4062
aS'2008-10-02'
p4063
aS'2008-10-03'
p4064
aS'2008-10-06'
p4065
aS'2008-10-07'
p4066
aS'2008-10-08'
p4067
aS'2008-10-09'
p4068
aS'2008-10-10'
p4069
aS'2008-10-13'
p4070
aS'2008-10-14'
p4071
aS'2008-10-15'
p4072
aS'2008-10-16'
p4073
aS'2008-10-17'
p4074
aS'2008-10-20'
p4075
aS'2008-10-21'
p4076
aS'2008-10-22'
p4077
aS'2008-10-23'
p4078
aS'2008-10-24'
p4079
aS'2008-10-27'
p4080
aS'2008-10-28'
p4081
aS'2008-10-29'
p4082
aS'2008-10-30'
p4083
aS'2008-10-31'
p4084
aS'2008-11-03'
p4085
aS'2008-11-04'
p4086
aS'2008-11-05'
p4087
aS'2008-11-06'
p4088
aS'2008-11-07'
p4089
aS'2008-11-10'
p4090
aS'2008-11-11'
p4091
aS'2008-11-12'
p4092
aS'2008-11-13'
p4093
aS'2008-11-14'
p4094
aS'2008-11-17'
p4095
aS'2008-11-18'
p4096
aS'2008-11-19'
p4097
aS'2008-11-20'
p4098
aS'2008-11-21'
p4099
aS'2008-11-24'
p4100
aS'2008-11-25'
p4101
aS'2008-11-26'
p4102
aS'2008-11-28'
p4103
aS'2008-12-01'
p4104
aS'2008-12-02'
p4105
aS'2008-12-03'
p4106
aS'2008-12-04'
p4107
aS'2008-12-05'
p4108
aS'2008-12-08'
p4109
aS'2008-12-09'
p4110
aS'2008-12-10'
p4111
aS'2008-12-11'
p4112
aS'2008-12-12'
p4113
aS'2008-12-15'
p4114
aS'2008-12-16'
p4115
aS'2008-12-17'
p4116
aS'2008-12-18'
p4117
aS'2008-12-19'
p4118
aS'2008-12-22'
p4119
aS'2008-12-23'
p4120
aS'2008-12-24'
p4121
aS'2008-12-26'
p4122
aS'2008-12-29'
p4123
aS'2008-12-30'
p4124
aS'2008-12-31'
p4125
aS'2009-01-02'
p4126
aS'2009-01-05'
p4127
aS'2009-01-06'
p4128
aS'2009-01-07'
p4129
aS'2009-01-08'
p4130
aS'2009-01-09'
p4131
aS'2009-01-12'
p4132
aS'2009-01-13'
p4133
aS'2009-01-14'
p4134
aS'2009-01-15'
p4135
aS'2009-01-16'
p4136
aS'2009-01-20'
p4137
aS'2009-01-21'
p4138
aS'2009-01-22'
p4139
aS'2009-01-23'
p4140
aS'2009-01-26'
p4141
aS'2009-01-27'
p4142
aS'2009-01-28'
p4143
aS'2009-01-29'
p4144
aS'2009-01-30'
p4145
aS'2009-02-02'
p4146
aS'2009-02-03'
p4147
aS'2009-02-04'
p4148
aS'2009-02-05'
p4149
aS'2009-02-06'
p4150
aS'2009-02-09'
p4151
aS'2009-02-10'
p4152
aS'2009-02-11'
p4153
aS'2009-02-12'
p4154
aS'2009-02-13'
p4155
aS'2009-02-17'
p4156
aS'2009-02-18'
p4157
aS'2009-02-19'
p4158
aS'2009-02-20'
p4159
aS'2009-02-23'
p4160
aS'2009-02-24'
p4161
aS'2009-02-25'
p4162
aS'2009-02-26'
p4163
aS'2009-02-27'
p4164
aS'2009-03-02'
p4165
aS'2009-03-03'
p4166
aS'2009-03-04'
p4167
aS'2009-03-05'
p4168
aS'2009-03-06'
p4169
aS'2009-03-09'
p4170
aS'2009-03-10'
p4171
aS'2009-03-11'
p4172
aS'2009-03-12'
p4173
aS'2009-03-13'
p4174
aS'2009-03-16'
p4175
aS'2009-03-17'
p4176
aS'2009-03-18'
p4177
aS'2009-03-19'
p4178
aS'2009-03-20'
p4179
aS'2009-03-23'
p4180
aS'2009-03-24'
p4181
aS'2009-03-25'
p4182
aS'2009-03-26'
p4183
aS'2009-03-27'
p4184
aS'2009-03-30'
p4185
aS'2009-03-31'
p4186
aS'2009-04-01'
p4187
aS'2009-04-02'
p4188
aS'2009-04-03'
p4189
aS'2009-04-06'
p4190
aS'2009-04-07'
p4191
aS'2009-04-08'
p4192
aS'2009-04-09'
p4193
aS'2009-04-13'
p4194
aS'2009-04-14'
p4195
aS'2009-04-15'
p4196
aS'2009-04-16'
p4197
aS'2009-04-17'
p4198
aS'2009-04-20'
p4199
aS'2009-04-21'
p4200
aS'2009-04-22'
p4201
aS'2009-04-23'
p4202
aS'2009-04-24'
p4203
aS'2009-04-27'
p4204
aS'2009-04-28'
p4205
aS'2009-04-29'
p4206
aS'2009-04-30'
p4207
aS'2009-05-01'
p4208
aS'2009-05-04'
p4209
aS'2009-05-05'
p4210
aS'2009-05-06'
p4211
aS'2009-05-07'
p4212
aS'2009-05-08'
p4213
aS'2009-05-11'
p4214
aS'2009-05-12'
p4215
aS'2009-05-13'
p4216
aS'2009-05-14'
p4217
aS'2009-05-15'
p4218
aS'2009-05-18'
p4219
aS'2009-05-19'
p4220
aS'2009-05-20'
p4221
aS'2009-05-21'
p4222
aS'2009-05-22'
p4223
aS'2009-05-26'
p4224
aS'2009-05-27'
p4225
aS'2009-05-28'
p4226
aS'2009-05-29'
p4227
aS'2009-06-01'
p4228
aS'2009-06-02'
p4229
aS'2009-06-03'
p4230
aS'2009-06-04'
p4231
aS'2009-06-05'
p4232
aS'2009-06-08'
p4233
aS'2009-06-09'
p4234
aS'2009-06-10'
p4235
aS'2009-06-11'
p4236
aS'2009-06-12'
p4237
aS'2009-06-15'
p4238
aS'2009-06-16'
p4239
aS'2009-06-17'
p4240
aS'2009-06-18'
p4241
aS'2009-06-19'
p4242
aS'2009-06-22'
p4243
aS'2009-06-23'
p4244
aS'2009-06-24'
p4245
aS'2009-06-25'
p4246
aS'2009-06-26'
p4247
aS'2009-06-29'
p4248
aS'2009-06-30'
p4249
aS'2009-07-01'
p4250
aS'2009-07-02'
p4251
aS'2009-07-06'
p4252
aS'2009-07-07'
p4253
aS'2009-07-08'
p4254
aS'2009-07-09'
p4255
aS'2009-07-10'
p4256
aS'2009-07-13'
p4257
aS'2009-07-14'
p4258
aS'2009-07-15'
p4259
aS'2009-07-16'
p4260
aS'2009-07-17'
p4261
aS'2009-07-20'
p4262
aS'2009-07-21'
p4263
aS'2009-07-22'
p4264
aS'2009-07-23'
p4265
aS'2009-07-24'
p4266
aS'2009-07-27'
p4267
aS'2009-07-28'
p4268
aS'2009-07-29'
p4269
aS'2009-07-30'
p4270
aS'2009-07-31'
p4271
aS'2009-08-03'
p4272
aS'2009-08-04'
p4273
aS'2009-08-05'
p4274
aS'2009-08-06'
p4275
aS'2009-08-07'
p4276
aS'2009-08-10'
p4277
aS'2009-08-11'
p4278
aS'2009-08-12'
p4279
aS'2009-08-13'
p4280
aS'2009-08-14'
p4281
aS'2009-08-17'
p4282
aS'2009-08-18'
p4283
aS'2009-08-19'
p4284
aS'2009-08-20'
p4285
aS'2009-08-21'
p4286
aS'2009-08-24'
p4287
aS'2009-08-25'
p4288
aS'2009-08-26'
p4289
aS'2009-08-27'
p4290
aS'2009-08-28'
p4291
aS'2009-08-31'
p4292
aS'2009-09-01'
p4293
aS'2009-09-02'
p4294
aS'2009-09-03'
p4295
aS'2009-09-04'
p4296
aS'2009-09-08'
p4297
aS'2009-09-09'
p4298
aS'2009-09-10'
p4299
aS'2009-09-11'
p4300
aS'2009-09-14'
p4301
aS'2009-09-15'
p4302
aS'2009-09-16'
p4303
aS'2009-09-17'
p4304
aS'2009-09-18'
p4305
aS'2009-09-21'
p4306
aS'2009-09-22'
p4307
aS'2009-09-23'
p4308
aS'2009-09-24'
p4309
aS'2009-09-25'
p4310
aS'2009-09-28'
p4311
aS'2009-09-29'
p4312
aS'2009-09-30'
p4313
aS'2009-10-01'
p4314
aS'2009-10-02'
p4315
aS'2009-10-05'
p4316
aS'2009-10-06'
p4317
aS'2009-10-07'
p4318
aS'2009-10-08'
p4319
aS'2009-10-09'
p4320
aS'2009-10-12'
p4321
aS'2009-10-13'
p4322
aS'2009-10-14'
p4323
aS'2009-10-15'
p4324
aS'2009-10-16'
p4325
aS'2009-10-19'
p4326
aS'2009-10-20'
p4327
aS'2009-10-21'
p4328
aS'2009-10-22'
p4329
aS'2009-10-23'
p4330
aS'2009-10-26'
p4331
aS'2009-10-27'
p4332
aS'2009-10-28'
p4333
aS'2009-10-29'
p4334
aS'2009-10-30'
p4335
aS'2009-11-02'
p4336
aS'2009-11-03'
p4337
aS'2009-11-04'
p4338
aS'2009-11-05'
p4339
aS'2009-11-06'
p4340
aS'2009-11-09'
p4341
aS'2009-11-10'
p4342
aS'2009-11-11'
p4343
aS'2009-11-12'
p4344
aS'2009-11-13'
p4345
aS'2009-11-16'
p4346
aS'2009-11-17'
p4347
aS'2009-11-18'
p4348
aS'2009-11-19'
p4349
aS'2009-11-20'
p4350
aS'2009-11-23'
p4351
aS'2009-11-24'
p4352
aS'2009-11-25'
p4353
aS'2009-11-27'
p4354
aS'2009-11-30'
p4355
aS'2009-12-01'
p4356
aS'2009-12-02'
p4357
aS'2009-12-03'
p4358
aS'2009-12-04'
p4359
aS'2009-12-07'
p4360
aS'2009-12-08'
p4361
aS'2009-12-09'
p4362
aS'2009-12-10'
p4363
aS'2009-12-11'
p4364
aS'2009-12-14'
p4365
aS'2009-12-15'
p4366
aS'2009-12-16'
p4367
aS'2009-12-17'
p4368
aS'2009-12-18'
p4369
aS'2009-12-21'
p4370
aS'2009-12-22'
p4371
aS'2009-12-23'
p4372
aS'2009-12-24'
p4373
aS'2009-12-28'
p4374
aS'2009-12-29'
p4375
aS'2009-12-30'
p4376
aS'2009-12-31'
p4377
aS'2010-01-04'
p4378
aS'2010-01-05'
p4379
aS'2010-01-06'
p4380
aS'2010-01-07'
p4381
aS'2010-01-08'
p4382
aS'2010-01-11'
p4383
aS'2010-01-12'
p4384
aS'2010-01-13'
p4385
aS'2010-01-14'
p4386
aS'2010-01-15'
p4387
aS'2010-01-19'
p4388
aS'2010-01-20'
p4389
aS'2010-01-21'
p4390
aS'2010-01-22'
p4391
aS'2010-01-25'
p4392
aS'2010-01-26'
p4393
aS'2010-01-27'
p4394
aS'2010-01-28'
p4395
aS'2010-01-29'
p4396
aS'2010-02-01'
p4397
aS'2010-02-02'
p4398
aS'2010-02-03'
p4399
aS'2010-02-04'
p4400
aS'2010-02-05'
p4401
aS'2010-02-08'
p4402
aS'2010-02-09'
p4403
aS'2010-02-10'
p4404
aS'2010-02-11'
p4405
aS'2010-02-12'
p4406
aS'2010-02-16'
p4407
aS'2010-02-17'
p4408
aS'2010-02-18'
p4409
aS'2010-02-19'
p4410
aS'2010-02-22'
p4411
aS'2010-02-23'
p4412
aS'2010-02-24'
p4413
aS'2010-02-25'
p4414
aS'2010-02-26'
p4415
aS'2010-03-01'
p4416
aS'2010-03-02'
p4417
aS'2010-03-03'
p4418
aS'2010-03-04'
p4419
aS'2010-03-05'
p4420
aS'2010-03-08'
p4421
aS'2010-03-09'
p4422
aS'2010-03-10'
p4423
aS'2010-03-11'
p4424
aS'2010-03-12'
p4425
aS'2010-03-15'
p4426
aS'2010-03-16'
p4427
aS'2010-03-17'
p4428
aS'2010-03-18'
p4429
aS'2010-03-19'
p4430
aS'2010-03-22'
p4431
aS'2010-03-23'
p4432
aS'2010-03-24'
p4433
aS'2010-03-25'
p4434
aS'2010-03-26'
p4435
aS'2010-03-29'
p4436
aS'2010-03-30'
p4437
aS'2010-03-31'
p4438
aS'2010-04-01'
p4439
aS'2010-04-05'
p4440
aS'2010-04-06'
p4441
aS'2010-04-07'
p4442
aS'2010-04-08'
p4443
aS'2010-04-09'
p4444
aS'2010-04-12'
p4445
aS'2010-04-13'
p4446
aS'2010-04-14'
p4447
aS'2010-04-15'
p4448
aS'2010-04-16'
p4449
aS'2010-04-19'
p4450
aS'2010-04-20'
p4451
aS'2010-04-21'
p4452
aS'2010-04-22'
p4453
aS'2010-04-23'
p4454
aS'2010-04-26'
p4455
aS'2010-04-27'
p4456
aS'2010-04-28'
p4457
aS'2010-04-29'
p4458
aS'2010-04-30'
p4459
aS'2010-05-03'
p4460
aS'2010-05-04'
p4461
aS'2010-05-05'
p4462
aS'2010-05-06'
p4463
aS'2010-05-07'
p4464
aS'2010-05-10'
p4465
aS'2010-05-11'
p4466
aS'2010-05-12'
p4467
aS'2010-05-13'
p4468
aS'2010-05-14'
p4469
aS'2010-05-17'
p4470
aS'2010-05-18'
p4471
aS'2010-05-19'
p4472
aS'2010-05-20'
p4473
aS'2010-05-21'
p4474
aS'2010-05-24'
p4475
aS'2010-05-25'
p4476
aS'2010-05-26'
p4477
aS'2010-05-27'
p4478
aS'2010-05-28'
p4479
aS'2010-06-01'
p4480
aS'2010-06-02'
p4481
aS'2010-06-03'
p4482
aS'2010-06-04'
p4483
aS'2010-06-07'
p4484
aS'2010-06-08'
p4485
aS'2010-06-09'
p4486
aS'2010-06-10'
p4487
aS'2010-06-11'
p4488
aS'2010-06-14'
p4489
aS'2010-06-15'
p4490
aS'2010-06-16'
p4491
aS'2010-06-17'
p4492
aS'2010-06-18'
p4493
aS'2010-06-21'
p4494
aS'2010-06-22'
p4495
aS'2010-06-23'
p4496
aS'2010-06-24'
p4497
aS'2010-06-25'
p4498
aS'2010-06-28'
p4499
aS'2010-06-29'
p4500
aS'2010-06-30'
p4501
aS'2010-07-01'
p4502
aS'2010-07-02'
p4503
aS'2010-07-06'
p4504
aS'2010-07-07'
p4505
aS'2010-07-08'
p4506
aS'2010-07-09'
p4507
aS'2010-07-12'
p4508
aS'2010-07-13'
p4509
aS'2010-07-14'
p4510
aS'2010-07-15'
p4511
aS'2010-07-16'
p4512
aS'2010-07-19'
p4513
aS'2010-07-20'
p4514
aS'2010-07-21'
p4515
aS'2010-07-22'
p4516
aS'2010-07-23'
p4517
aS'2010-07-26'
p4518
aS'2010-07-27'
p4519
aS'2010-07-28'
p4520
aS'2010-07-29'
p4521
aS'2010-07-30'
p4522
aS'2010-08-02'
p4523
aS'2010-08-03'
p4524
aS'2010-08-04'
p4525
aS'2010-08-05'
p4526
aS'2010-08-06'
p4527
aS'2010-08-09'
p4528
aS'2010-08-10'
p4529
aS'2010-08-11'
p4530
aS'2010-08-12'
p4531
aS'2010-08-13'
p4532
aS'2010-08-16'
p4533
aS'2010-08-17'
p4534
aS'2010-08-18'
p4535
aS'2010-08-19'
p4536
aS'2010-08-20'
p4537
aS'2010-08-23'
p4538
aS'2010-08-24'
p4539
aS'2010-08-25'
p4540
aS'2010-08-26'
p4541
aS'2010-08-27'
p4542
aS'2010-08-30'
p4543
aS'2010-08-31'
p4544
aS'2010-09-01'
p4545
aS'2010-09-02'
p4546
aS'2010-09-03'
p4547
aS'2010-09-07'
p4548
aS'2010-09-08'
p4549
aS'2010-09-09'
p4550
aS'2010-09-10'
p4551
aS'2010-09-13'
p4552
aS'2010-09-14'
p4553
aS'2010-09-15'
p4554
aS'2010-09-16'
p4555
aS'2010-09-17'
p4556
aS'2010-09-20'
p4557
aS'2010-09-21'
p4558
aS'2010-09-22'
p4559
aS'2010-09-23'
p4560
aS'2010-09-24'
p4561
aS'2010-09-27'
p4562
aS'2010-09-28'
p4563
aS'2010-09-29'
p4564
aS'2010-09-30'
p4565
aS'2010-10-01'
p4566
aS'2010-10-04'
p4567
aS'2010-10-05'
p4568
aS'2010-10-06'
p4569
aS'2010-10-07'
p4570
aS'2010-10-08'
p4571
aS'2010-10-11'
p4572
aS'2010-10-12'
p4573
aS'2010-10-13'
p4574
aS'2010-10-14'
p4575
aS'2010-10-15'
p4576
aS'2010-10-18'
p4577
aS'2010-10-19'
p4578
aS'2010-10-20'
p4579
aS'2010-10-21'
p4580
aS'2010-10-22'
p4581
aS'2010-10-25'
p4582
aS'2010-10-26'
p4583
aS'2010-10-27'
p4584
aS'2010-10-28'
p4585
aS'2010-10-29'
p4586
aS'2010-11-01'
p4587
aS'2010-11-02'
p4588
aS'2010-11-03'
p4589
aS'2010-11-04'
p4590
aS'2010-11-05'
p4591
aS'2010-11-08'
p4592
aS'2010-11-09'
p4593
aS'2010-11-10'
p4594
aS'2010-11-11'
p4595
aS'2010-11-12'
p4596
aS'2010-11-15'
p4597
aS'2010-11-16'
p4598
aS'2010-11-17'
p4599
aS'2010-11-18'
p4600
aS'2010-11-19'
p4601
aS'2010-11-22'
p4602
aS'2010-11-23'
p4603
aS'2010-11-24'
p4604
aS'2010-11-26'
p4605
aS'2010-11-29'
p4606
aS'2010-11-30'
p4607
aS'2010-12-01'
p4608
aS'2010-12-02'
p4609
aS'2010-12-03'
p4610
aS'2010-12-06'
p4611
aS'2010-12-07'
p4612
aS'2010-12-08'
p4613
aS'2010-12-09'
p4614
aS'2010-12-10'
p4615
aS'2010-12-13'
p4616
aS'2010-12-14'
p4617
aS'2010-12-15'
p4618
aS'2010-12-16'
p4619
aS'2010-12-17'
p4620
aS'2010-12-20'
p4621
aS'2010-12-21'
p4622
aS'2010-12-22'
p4623
aS'2010-12-23'
p4624
aS'2010-12-27'
p4625
aS'2010-12-28'
p4626
aS'2010-12-29'
p4627
aS'2010-12-30'
p4628
aS'2010-12-31'
p4629
aS'2011-01-03'
p4630
aS'2011-01-04'
p4631
aS'2011-01-05'
p4632
aS'2011-01-06'
p4633
aS'2011-01-07'
p4634
aS'2011-01-10'
p4635
aS'2011-01-11'
p4636
aS'2011-01-12'
p4637
aS'2011-01-13'
p4638
aS'2011-01-14'
p4639
aS'2011-01-18'
p4640
aS'2011-01-19'
p4641
aS'2011-01-20'
p4642
aS'2011-01-21'
p4643
aS'2011-01-24'
p4644
aS'2011-01-25'
p4645
aS'2011-01-26'
p4646
aS'2011-01-27'
p4647
aS'2011-01-28'
p4648
aS'2011-01-31'
p4649
aS'2011-02-01'
p4650
aS'2011-02-02'
p4651
aS'2011-02-03'
p4652
aS'2011-02-04'
p4653
aS'2011-02-07'
p4654
aS'2011-02-08'
p4655
aS'2011-02-09'
p4656
aS'2011-02-10'
p4657
aS'2011-02-11'
p4658
aS'2011-02-14'
p4659
aS'2011-02-15'
p4660
aS'2011-02-16'
p4661
aS'2011-02-17'
p4662
aS'2011-02-18'
p4663
aS'2011-02-22'
p4664
aS'2011-02-23'
p4665
aS'2011-02-24'
p4666
aS'2011-02-25'
p4667
aS'2011-02-28'
p4668
aS'2011-03-01'
p4669
aS'2011-03-02'
p4670
aS'2011-03-03'
p4671
aS'2011-03-04'
p4672
aS'2011-03-07'
p4673
aS'2011-03-08'
p4674
aS'2011-03-09'
p4675
aS'2011-03-10'
p4676
aS'2011-03-11'
p4677
aS'2011-03-14'
p4678
aS'2011-03-15'
p4679
aS'2011-03-16'
p4680
aS'2011-03-17'
p4681
aS'2011-03-18'
p4682
aS'2011-03-21'
p4683
aS'2011-03-22'
p4684
aS'2011-03-23'
p4685
aS'2011-03-24'
p4686
aS'2011-03-25'
p4687
aS'2011-03-28'
p4688
aS'2011-03-29'
p4689
aS'2011-03-30'
p4690
aS'2011-03-31'
p4691
aS'2011-04-01'
p4692
aS'2011-04-04'
p4693
aS'2011-04-05'
p4694
aS'2011-04-06'
p4695
aS'2011-04-07'
p4696
aS'2011-04-08'
p4697
aS'2011-04-11'
p4698
aS'2011-04-12'
p4699
aS'2011-04-13'
p4700
aS'2011-04-14'
p4701
aS'2011-04-15'
p4702
aS'2011-04-18'
p4703
aS'2011-04-19'
p4704
aS'2011-04-20'
p4705
aS'2011-04-21'
p4706
aS'2011-04-25'
p4707
aS'2011-04-26'
p4708
aS'2011-04-27'
p4709
aS'2011-04-28'
p4710
aS'2011-04-29'
p4711
aS'2011-05-02'
p4712
aS'2011-05-03'
p4713
aS'2011-05-04'
p4714
aS'2011-05-05'
p4715
aS'2011-05-06'
p4716
aS'2011-05-09'
p4717
aS'2011-05-10'
p4718
aS'2011-05-11'
p4719
aS'2011-05-12'
p4720
aS'2011-05-13'
p4721
aS'2011-05-16'
p4722
aS'2011-05-17'
p4723
aS'2011-05-18'
p4724
aS'2011-05-19'
p4725
aS'2011-05-20'
p4726
aS'2011-05-23'
p4727
aS'2011-05-24'
p4728
aS'2011-05-25'
p4729
aS'2011-05-26'
p4730
aS'2011-05-27'
p4731
aS'2011-05-31'
p4732
aS'2011-06-01'
p4733
aS'2011-06-02'
p4734
aS'2011-06-03'
p4735
aS'2011-06-06'
p4736
aS'2011-06-07'
p4737
aS'2011-06-08'
p4738
aS'2011-06-09'
p4739
aS'2011-06-10'
p4740
aS'2011-06-13'
p4741
aS'2011-06-14'
p4742
aS'2011-06-15'
p4743
aS'2011-06-16'
p4744
aS'2011-06-17'
p4745
aS'2011-06-20'
p4746
aS'2011-06-21'
p4747
aS'2011-06-22'
p4748
aS'2011-06-23'
p4749
aS'2011-06-24'
p4750
aS'2011-06-27'
p4751
aS'2011-06-28'
p4752
aS'2011-06-29'
p4753
aS'2011-06-30'
p4754
aS'2011-07-01'
p4755
aS'2011-07-05'
p4756
aS'2011-07-06'
p4757
aS'2011-07-07'
p4758
aS'2011-07-08'
p4759
aS'2011-07-11'
p4760
aS'2011-07-12'
p4761
aS'2011-07-13'
p4762
aS'2011-07-14'
p4763
aS'2011-07-15'
p4764
aS'2011-07-18'
p4765
aS'2011-07-19'
p4766
aS'2011-07-20'
p4767
aS'2011-07-21'
p4768
aS'2011-07-22'
p4769
aS'2011-07-25'
p4770
aS'2011-07-26'
p4771
aS'2011-07-27'
p4772
aS'2011-07-28'
p4773
aS'2011-07-29'
p4774
aS'2011-08-01'
p4775
aS'2011-08-02'
p4776
aS'2011-08-03'
p4777
aS'2011-08-04'
p4778
aS'2011-08-05'
p4779
aS'2011-08-08'
p4780
aS'2011-08-09'
p4781
aS'2011-08-10'
p4782
aS'2011-08-11'
p4783
aS'2011-08-12'
p4784
aS'2011-08-15'
p4785
aS'2011-08-16'
p4786
aS'2011-08-17'
p4787
aS'2011-08-18'
p4788
aS'2011-08-19'
p4789
aS'2011-08-22'
p4790
aS'2011-08-23'
p4791
aS'2011-08-24'
p4792
aS'2011-08-25'
p4793
aS'2011-08-26'
p4794
aS'2011-08-29'
p4795
aS'2011-08-30'
p4796
aS'2011-08-31'
p4797
aS'2011-09-01'
p4798
aS'2011-09-02'
p4799
aS'2011-09-06'
p4800
aS'2011-09-07'
p4801
aS'2011-09-08'
p4802
aS'2011-09-09'
p4803
aS'2011-09-12'
p4804
aS'2011-09-13'
p4805
aS'2011-09-14'
p4806
aS'2011-09-15'
p4807
aS'2011-09-16'
p4808
aS'2011-09-19'
p4809
aS'2011-09-20'
p4810
aS'2011-09-21'
p4811
aS'2011-09-22'
p4812
aS'2011-09-23'
p4813
aS'2011-09-26'
p4814
aS'2011-09-27'
p4815
aS'2011-09-28'
p4816
aS'2011-09-29'
p4817
aS'2011-09-30'
p4818
aS'2011-10-03'
p4819
aS'2011-10-04'
p4820
aS'2011-10-05'
p4821
aS'2011-10-06'
p4822
aS'2011-10-07'
p4823
aS'2011-10-10'
p4824
aS'2011-10-11'
p4825
aS'2011-10-12'
p4826
aS'2011-10-13'
p4827
aS'2011-10-14'
p4828
aS'2011-10-17'
p4829
aS'2011-10-18'
p4830
aS'2011-10-19'
p4831
aS'2011-10-20'
p4832
aS'2011-10-21'
p4833
aS'2011-10-24'
p4834
aS'2011-10-25'
p4835
aS'2011-10-26'
p4836
aS'2011-10-27'
p4837
aS'2011-10-28'
p4838
aS'2011-10-31'
p4839
aS'2011-11-01'
p4840
aS'2011-11-02'
p4841
aS'2011-11-03'
p4842
aS'2011-11-04'
p4843
aS'2011-11-07'
p4844
aS'2011-11-08'
p4845
aS'2011-11-09'
p4846
aS'2011-11-10'
p4847
aS'2011-11-11'
p4848
aS'2011-11-14'
p4849
aS'2011-11-15'
p4850
aS'2011-11-16'
p4851
aS'2011-11-17'
p4852
aS'2011-11-18'
p4853
aS'2011-11-21'
p4854
aS'2011-11-22'
p4855
aS'2011-11-23'
p4856
aS'2011-11-25'
p4857
aS'2011-11-28'
p4858
aS'2011-11-29'
p4859
aS'2011-11-30'
p4860
aS'2011-12-01'
p4861
aS'2011-12-02'
p4862
aS'2011-12-05'
p4863
aS'2011-12-06'
p4864
aS'2011-12-07'
p4865
aS'2011-12-08'
p4866
aS'2011-12-09'
p4867
aS'2011-12-12'
p4868
aS'2011-12-13'
p4869
aS'2011-12-14'
p4870
aS'2011-12-15'
p4871
aS'2011-12-16'
p4872
aS'2011-12-19'
p4873
aS'2011-12-20'
p4874
aS'2011-12-21'
p4875
aS'2011-12-22'
p4876
aS'2011-12-23'
p4877
aS'2011-12-27'
p4878
aS'2011-12-28'
p4879
aS'2011-12-29'
p4880
aS'2011-12-30'
p4881
aS'2012-01-03'
p4882
aS'2012-01-04'
p4883
aS'2012-01-05'
p4884
aS'2012-01-06'
p4885
aS'2012-01-09'
p4886
aS'2012-01-10'
p4887
aS'2012-01-11'
p4888
aS'2012-01-12'
p4889
aS'2012-01-13'
p4890
aS'2012-01-17'
p4891
aS'2012-01-18'
p4892
aS'2012-01-19'
p4893
aS'2012-01-20'
p4894
aS'2012-01-23'
p4895
aS'2012-01-24'
p4896
aS'2012-01-25'
p4897
aS'2012-01-26'
p4898
aS'2012-01-27'
p4899
aS'2012-01-30'
p4900
aS'2012-01-31'
p4901
aS'2012-02-01'
p4902
aS'2012-02-02'
p4903
aS'2012-02-03'
p4904
aS'2012-02-06'
p4905
aS'2012-02-07'
p4906
aS'2012-02-08'
p4907
aS'2012-02-09'
p4908
aS'2012-02-10'
p4909
aS'2012-02-13'
p4910
aS'2012-02-14'
p4911
aS'2012-02-15'
p4912
aS'2012-02-16'
p4913
aS'2012-02-17'
p4914
aS'2012-02-21'
p4915
aS'2012-02-22'
p4916
aS'2012-02-23'
p4917
aS'2012-02-24'
p4918
aS'2012-02-27'
p4919
aS'2012-02-28'
p4920
aS'2012-02-29'
p4921
aS'2012-03-01'
p4922
aS'2012-03-02'
p4923
aS'2012-03-05'
p4924
aS'2012-03-06'
p4925
aS'2012-03-07'
p4926
aS'2012-03-08'
p4927
aS'2012-03-09'
p4928
aS'2012-03-12'
p4929
aS'2012-03-13'
p4930
aS'2012-03-14'
p4931
aS'2012-03-15'
p4932
aS'2012-03-16'
p4933
aS'2012-03-19'
p4934
aS'2012-03-20'
p4935
aS'2012-03-21'
p4936
aS'2012-03-22'
p4937
aS'2012-03-23'
p4938
aS'2012-03-26'
p4939
aS'2012-03-27'
p4940
aS'2012-03-28'
p4941
aS'2012-03-29'
p4942
aS'2012-03-30'
p4943
aS'2012-04-02'
p4944
aS'2012-04-03'
p4945
aS'2012-04-04'
p4946
aS'2012-04-05'
p4947
aS'2012-04-09'
p4948
aS'2012-04-10'
p4949
aS'2012-04-11'
p4950
aS'2012-04-12'
p4951
aS'2012-04-13'
p4952
aS'2012-04-16'
p4953
aS'2012-04-17'
p4954
aS'2012-04-18'
p4955
aS'2012-04-19'
p4956
aS'2012-04-20'
p4957
aS'2012-04-23'
p4958
aS'2012-04-24'
p4959
aS'2012-04-25'
p4960
aS'2012-04-26'
p4961
aS'2012-04-27'
p4962
aS'2012-04-30'
p4963
aS'2012-05-01'
p4964
aS'2012-05-02'
p4965
aS'2012-05-03'
p4966
aS'2012-05-04'
p4967
aS'2012-05-07'
p4968
aS'2012-05-08'
p4969
aS'2012-05-09'
p4970
aS'2012-05-10'
p4971
aS'2012-05-11'
p4972
aS'2012-05-14'
p4973
aS'2012-05-15'
p4974
aS'2012-05-16'
p4975
aS'2012-05-17'
p4976
aS'2012-05-18'
p4977
aS'2012-05-21'
p4978
aS'2012-05-22'
p4979
aS'2012-05-23'
p4980
aS'2012-05-24'
p4981
aS'2012-05-25'
p4982
aS'2012-05-29'
p4983
aS'2012-05-30'
p4984
aS'2012-05-31'
p4985
aS'2012-06-01'
p4986
aS'2012-06-04'
p4987
aS'2012-06-05'
p4988
aS'2012-06-06'
p4989
aS'2012-06-07'
p4990
aS'2012-06-08'
p4991
aS'2012-06-11'
p4992
aS'2012-06-12'
p4993
aS'2012-06-13'
p4994
aS'2012-06-14'
p4995
aS'2012-06-15'
p4996
aS'2012-06-18'
p4997
aS'2012-06-19'
p4998
aS'2012-06-20'
p4999
aS'2012-06-21'
p5000
aS'2012-06-22'
p5001
aS'2012-06-25'
p5002
aS'2012-06-26'
p5003
aS'2012-06-27'
p5004
aS'2012-06-28'
p5005
aS'2012-06-29'
p5006
aS'2012-07-02'
p5007
aS'2012-07-03'
p5008
aS'2012-07-05'
p5009
aS'2012-07-06'
p5010
aS'2012-07-09'
p5011
aS'2012-07-10'
p5012
aS'2012-07-11'
p5013
aS'2012-07-12'
p5014
aS'2012-07-13'
p5015
aS'2012-07-16'
p5016
aS'2012-07-17'
p5017
aS'2012-07-18'
p5018
aS'2012-07-19'
p5019
aS'2012-07-20'
p5020
aS'2012-07-23'
p5021
aS'2012-07-24'
p5022
aS'2012-07-25'
p5023
aS'2012-07-26'
p5024
aS'2012-07-27'
p5025
aS'2012-07-30'
p5026
aS'2012-07-31'
p5027
aS'2012-08-01'
p5028
aS'2012-08-02'
p5029
aS'2012-08-03'
p5030
aS'2012-08-06'
p5031
aS'2012-08-07'
p5032
aS'2012-08-08'
p5033
aS'2012-08-09'
p5034
aS'2012-08-10'
p5035
aS'2012-08-13'
p5036
aS'2012-08-14'
p5037
aS'2012-08-15'
p5038
aS'2012-08-16'
p5039
aS'2012-08-17'
p5040
aS'2012-08-20'
p5041
aS'2012-08-21'
p5042
aS'2012-08-22'
p5043
aS'2012-08-23'
p5044
aS'2012-08-24'
p5045
aS'2012-08-27'
p5046
aS'2012-08-28'
p5047
aS'2012-08-29'
p5048
aS'2012-08-30'
p5049
aS'2012-08-31'
p5050
aS'2012-09-04'
p5051
aS'2012-09-05'
p5052
aS'2012-09-06'
p5053
aS'2012-09-07'
p5054
aS'2012-09-10'
p5055
aS'2012-09-11'
p5056
aS'2012-09-12'
p5057
aS'2012-09-13'
p5058
aS'2012-09-14'
p5059
aS'2012-09-17'
p5060
aS'2012-09-18'
p5061
aS'2012-09-19'
p5062
aS'2012-09-20'
p5063
aS'2012-09-21'
p5064
aS'2012-09-24'
p5065
aS'2012-09-25'
p5066
aS'2012-09-26'
p5067
aS'2012-09-27'
p5068
aS'2012-09-28'
p5069
aS'2012-10-01'
p5070
aS'2012-10-02'
p5071
aS'2012-10-03'
p5072
aS'2012-10-04'
p5073
aS'2012-10-05'
p5074
aS'2012-10-08'
p5075
aS'2012-10-09'
p5076
aS'2012-10-10'
p5077
aS'2012-10-11'
p5078
aS'2012-10-12'
p5079
aS'2012-10-15'
p5080
aS'2012-10-16'
p5081
aS'2012-10-17'
p5082
aS'2012-10-18'
p5083
aS'2012-10-19'
p5084
aS'2012-10-22'
p5085
aS'2012-10-23'
p5086
aS'2012-10-24'
p5087
aS'2012-10-25'
p5088
aS'2012-10-26'
p5089
aS'2012-10-31'
p5090
aS'2012-11-01'
p5091
aS'2012-11-02'
p5092
aS'2012-11-05'
p5093
aS'2012-11-06'
p5094
aS'2012-11-07'
p5095
aS'2012-11-08'
p5096
aS'2012-11-09'
p5097
aS'2012-11-12'
p5098
aS'2012-11-13'
p5099
aS'2012-11-14'
p5100
aS'2012-11-15'
p5101
aS'2012-11-16'
p5102
aS'2012-11-19'
p5103
aS'2012-11-20'
p5104
aS'2012-11-21'
p5105
aS'2012-11-23'
p5106
aS'2012-11-26'
p5107
aS'2012-11-27'
p5108
aS'2012-11-28'
p5109
aS'2012-11-29'
p5110
aS'2012-11-30'
p5111
aS'2012-12-03'
p5112
aS'2012-12-04'
p5113
aS'2012-12-05'
p5114
aS'2012-12-06'
p5115
aS'2012-12-07'
p5116
aS'2012-12-10'
p5117
aS'2012-12-11'
p5118
aS'2012-12-12'
p5119
aS'2012-12-13'
p5120
aS'2012-12-14'
p5121
aS'2012-12-17'
p5122
aS'2012-12-18'
p5123
aS'2012-12-19'
p5124
aS'2012-12-20'
p5125
aS'2012-12-21'
p5126
aS'2012-12-24'
p5127
aS'2012-12-26'
p5128
aS'2012-12-27'
p5129
aS'2012-12-28'
p5130
aS'2012-12-31'
p5131
aS'2013-01-02'
p5132
aS'2013-01-03'
p5133
aS'2013-01-04'
p5134
aS'2013-01-07'
p5135
aS'2013-01-08'
p5136
aS'2013-01-09'
p5137
aS'2013-01-10'
p5138
aS'2013-01-11'
p5139
aS'2013-01-14'
p5140
aS'2013-01-15'
p5141
aS'2013-01-16'
p5142
aS'2013-01-17'
p5143
aS'2013-01-18'
p5144
aS'2013-01-22'
p5145
aS'2013-01-23'
p5146
aS'2013-01-24'
p5147
aS'2013-01-25'
p5148
aS'2013-01-28'
p5149
aS'2013-01-29'
p5150
aS'2013-01-30'
p5151
aS'2013-01-31'
p5152
aS'2013-02-01'
p5153
aS'2013-02-04'
p5154
aS'2013-02-05'
p5155
aS'2013-02-06'
p5156
aS'2013-02-07'
p5157
aS'2013-02-08'
p5158
aS'2013-02-11'
p5159
aS'2013-02-12'
p5160
aS'2013-02-13'
p5161
aS'2013-02-14'
p5162
aS'2013-02-15'
p5163
aS'2013-02-19'
p5164
aS'2013-02-20'
p5165
aS'2013-02-21'
p5166
aS'2013-02-22'
p5167
aS'2013-02-25'
p5168
aS'2013-02-26'
p5169
aS'2013-02-27'
p5170
aS'2013-02-28'
p5171
aS'2013-03-01'
p5172
aS'2013-03-04'
p5173
aS'2013-03-05'
p5174
aS'2013-03-06'
p5175
aS'2013-03-07'
p5176
aS'2013-03-08'
p5177
aS'2013-03-11'
p5178
aS'2013-03-12'
p5179
aS'2013-03-13'
p5180
aS'2013-03-14'
p5181
aS'2013-03-15'
p5182
aS'2013-03-18'
p5183
aS'2013-03-19'
p5184
aS'2013-03-20'
p5185
aS'2013-03-21'
p5186
aS'2013-03-22'
p5187
aS'2013-03-25'
p5188
aS'2013-03-26'
p5189
aS'2013-03-27'
p5190
aS'2013-03-28'
p5191
aS'2013-04-01'
p5192
aS'2013-04-02'
p5193
aS'2013-04-03'
p5194
aS'2013-04-04'
p5195
aS'2013-04-05'
p5196
aS'2013-04-08'
p5197
aS'2013-04-09'
p5198
aS'2013-04-10'
p5199
aS'2013-04-11'
p5200
aS'2013-04-12'
p5201
aS'2013-04-15'
p5202
aS'2013-04-16'
p5203
aS'2013-04-17'
p5204
aS'2013-04-18'
p5205
aS'2013-04-19'
p5206
aS'2013-04-22'
p5207
aS'2013-04-23'
p5208
aS'2013-04-24'
p5209
aS'2013-04-25'
p5210
aS'2013-04-26'
p5211
aS'2013-04-29'
p5212
aS'2013-04-30'
p5213
aS'2013-05-01'
p5214
aS'2013-05-02'
p5215
aS'2013-05-03'
p5216
aS'2013-05-06'
p5217
aS'2013-05-07'
p5218
aS'2013-05-08'
p5219
aS'2013-05-09'
p5220
aS'2013-05-10'
p5221
aS'2013-05-13'
p5222
aS'2013-05-14'
p5223
aS'2013-05-15'
p5224
aS'2013-05-16'
p5225
aS'2013-05-17'
p5226
aS'2013-05-20'
p5227
aS'2013-05-21'
p5228
aS'2013-05-22'
p5229
aS'2013-05-23'
p5230
aS'2013-05-24'
p5231
aS'2013-05-28'
p5232
aS'2013-05-29'
p5233
aS'2013-05-30'
p5234
aS'2013-05-31'
p5235
aS'2013-06-03'
p5236
aS'2013-06-04'
p5237
aS'2013-06-05'
p5238
aS'2013-06-06'
p5239
aS'2013-06-07'
p5240
aS'2013-06-10'
p5241
aS'2013-06-11'
p5242
aS'2013-06-12'
p5243
aS'2013-06-13'
p5244
aS'2013-06-14'
p5245
aS'2013-06-17'
p5246
aS'2013-06-18'
p5247
aS'2013-06-19'
p5248
aS'2013-06-20'
p5249
aS'2013-06-21'
p5250
aS'2013-06-24'
p5251
aS'2013-06-25'
p5252
aS'2013-06-26'
p5253
aS'2013-06-27'
p5254
aS'2013-06-28'
p5255
aS'2013-07-01'
p5256
a.