(dp0
S'2007-10-22'
p1
(S'170.35'
p2
S'174.90'
p3
S'169.96'
p4
S'174.36'
p5
S'58910700'
p6
S'168.59'
p7
tp8
sS'2007-10-23'
p9
(S'188.56'
p10
S'188.60'
p11
S'182.76'
p12
S'186.16'
p13
S'64113000'
p14
S'180.00'
p15
tp16
sS'2007-01-22'
p17
(S'89.14'
p18
S'89.16'
p19
S'85.65'
p20
S'86.79'
p21
S'51929500'
p22
S'83.92'
p23
tp24
sS'2006-03-15'
p25
(S'67.71'
p26
S'68.04'
p27
S'65.52'
p28
S'66.23'
p29
S'31857000'
p30
S'64.04'
p31
tp32
sS'2007-10-26'
p33
(S'185.29'
p34
S'185.37'
p35
S'182.88'
p36
S'184.70'
p37
S'25219800'
p38
S'178.59'
p39
tp40
sS'2007-06-01'
p41
(S'121.10'
p42
S'121.19'
p43
S'118.29'
p44
S'118.40'
p45
S'31616500'
p46
S'114.48'
p47
tp48
sS'2007-10-24'
p49
(S'185.81'
p50
S'187.21'
p51
S'179.24'
p52
S'185.93'
p53
S'46017200'
p54
S'179.78'
p55
tp56
sS'2007-10-25'
p57
(S'184.87'
p58
S'185.90'
p59
S'181.66'
p60
S'182.78'
p61
S'34771500'
p62
S'176.73'
p63
tp64
sS'2007-10-29'
p65
(S'185.45'
p66
S'186.59'
p67
S'184.70'
p68
S'185.09'
p69
S'19305500'
p70
S'178.96'
p71
tp72
sS'2007-06-18'
p73
(S'123.28'
p74
S'125.18'
p75
S'122.54'
p76
S'125.09'
p77
S'32521600'
p78
S'120.95'
p79
tp80
sS'2008-11-17'
p81
(S'88.48'
p82
S'90.55'
p83
S'87.26'
p84
S'88.14'
p85
S'41518800'
p86
S'85.22'
p87
tp88
sS'2006-08-16'
p89
(S'67.10'
p90
S'68.07'
p91
S'66.33'
p92
S'67.98'
p93
S'27903000'
p94
S'65.73'
p95
tp96
sS'2006-08-15'
p97
(S'65.34'
p98
S'66.50'
p99
S'64.80'
p100
S'66.45'
p101
S'30762600'
p102
S'64.25'
p103
tp104
sS'2008-11-14'
p105
(S'93.76'
p106
S'93.99'
p107
S'90.00'
p108
S'90.24'
p109
S'50188100'
p110
S'87.25'
p111
tp112
sS'2008-11-13'
p113
(S'89.87'
p114
S'96.44'
p115
S'86.02'
p116
S'96.44'
p117
S'66217400'
p118
S'93.25'
p119
tp120
sS'2008-11-12'
p121
(S'92.43'
p122
S'93.24'
p123
S'90.01'
p124
S'90.12'
p125
S'42106300'
p126
S'87.14'
p127
tp128
sS'2008-11-11'
p129
(S'94.81'
p130
S'97.17'
p131
S'92.26'
p132
S'94.77'
p133
S'43733500'
p134
S'91.63'
p135
tp136
sS'2008-11-10'
p137
(S'100.17'
p138
S'100.40'
p139
S'94.50'
p140
S'95.88'
p141
S'40136500'
p142
S'92.71'
p143
tp144
sS'2006-11-17'
p145
(S'85.14'
p146
S'85.94'
p147
S'85.00'
p148
S'85.85'
p149
S'16658000'
p150
S'83.01'
p151
tp152
sS'2009-04-09'
p153
(S'118.42'
p154
S'120.00'
p155
S'117.96'
p156
S'119.57'
p157
S'18955600'
p158
S'115.61'
p159
tp160
sS'2008-07-30'
p161
(S'157.78'
p162
S'160.49'
p163
S'156.08'
p164
S'159.88'
p165
S'25899400'
p166
S'154.59'
p167
tp168
sS'2008-07-31'
p169
(S'157.54'
p170
S'162.20'
p171
S'156.98'
p172
S'158.95'
p173
S'22767800'
p174
S'153.69'
p175
tp176
sS'2009-04-08'
p177
(S'115.43'
p178
S'116.79'
p179
S'114.58'
p180
S'116.32'
p181
S'16272500'
p182
S'112.47'
p183
tp184
sS'2006-03-31'
p185
(S'63.25'
p186
S'63.61'
p187
S'62.24'
p188
S'62.72'
p189
S'29119900'
p190
S'60.64'
p191
tp192
sS'2004-08-19'
p193
(S'31.51'
p194
S'31.86'
p195
S'30.36'
p196
S'30.71'
p197
S'13890000'
p198
S'14.85'
p199
tp200
sS'2007-06-19'
p201
(S'124.69'
p202
S'125.01'
p203
S'122.91'
p204
S'123.66'
p205
S'33679500'
p206
S'119.57'
p207
tp208
sS'2005-07-22'
p209
(S'43.44'
p210
S'44.00'
p211
S'43.39'
p212
S'44.00'
p213
S'10753800'
p214
S'42.54'
p215
tp216
sS'2006-09-15'
p217
(S'74.60'
p218
S'74.98'
p219
S'73.29'
p220
S'74.10'
p221
S'35066200'
p222
S'71.65'
p223
tp224
sS'2009-03-19'
p225
(S'101.85'
p226
S'103.20'
p227
S'100.25'
p228
S'101.62'
p229
S'17863600'
p230
S'98.26'
p231
tp232
sS'2009-03-18'
p233
(S'99.91'
p234
S'103.48'
p235
S'99.72'
p236
S'101.52'
p237
S'28429900'
p238
S'98.16'
p239
tp240
sS'2005-09-30'
p241
(S'52.33'
p242
S'53.65'
p243
S'51.88'
p244
S'53.61'
p245
S'18986900'
p246
S'51.84'
p247
tp248
sS'2009-03-17'
p249
(S'95.24'
p250
S'99.69'
p251
S'95.07'
p252
S'99.66'
p253
S'28094500'
p254
S'96.36'
p255
tp256
sS'2009-03-16'
p257
(S'96.53'
p258
S'97.39'
p259
S'94.18'
p260
S'95.42'
p261
S'28473000'
p262
S'92.26'
p263
tp264
sS'2009-03-11'
p265
(S'89.81'
p266
S'94.07'
p267
S'89.58'
p268
S'92.68'
p269
S'30227600'
p270
S'89.61'
p271
tp272
sS'2009-03-10'
p273
(S'84.87'
p274
S'89.17'
p275
S'84.36'
p276
S'88.63'
p277
S'30152100'
p278
S'85.70'
p279
tp280
sS'2009-03-13'
p281
(S'96.30'
p282
S'97.20'
p283
S'95.01'
p284
S'95.93'
p285
S'21470300'
p286
S'92.76'
p287
tp288
sS'2009-03-12'
p289
(S'92.90'
p290
S'96.58'
p291
S'92.00'
p292
S'96.35'
p293
S'27444900'
p294
S'93.16'
p295
tp296
sS'2004-10-21'
p297
(S'47.48'
p298
S'48.13'
p299
S'47.36'
p300
S'47.94'
p301
S'25875200'
p302
S'23.18'
p303
tp304
sS'2005-06-01'
p305
(S'39.89'
p306
S'40.76'
p307
S'39.86'
p308
S'40.30'
p309
S'16207600'
p310
S'38.97'
p311
tp312
sS'2005-06-03'
p313
(S'38.16'
p314
S'38.58'
p315
S'37.77'
p316
S'38.24'
p317
S'34173900'
p318
S'36.97'
p319
tp320
sS'2006-12-11'
p321
(S'88.90'
p322
S'89.30'
p323
S'88.05'
p324
S'88.75'
p325
S'17849300'
p326
S'85.81'
p327
tp328
sS'2006-08-17'
p329
(S'68.00'
p330
S'68.66'
p331
S'67.18'
p332
S'67.59'
p333
S'20755300'
p334
S'65.35'
p335
tp336
sS'2006-04-19'
p337
(S'66.82'
p338
S'67.00'
p339
S'65.47'
p340
S'65.65'
p341
S'38786900'
p342
S'63.48'
p343
tp344
sS'2006-04-18'
p345
(S'65.04'
p346
S'66.47'
p347
S'64.79'
p348
S'66.22'
p349
S'28387300'
p350
S'64.03'
p351
tp352
sS'2006-08-28'
p353
(S'68.50'
p354
S'68.61'
p355
S'66.68'
p356
S'66.98'
p357
S'26362900'
p358
S'64.76'
p359
tp360
sS'2006-04-13'
p361
(S'66.34'
p362
S'67.44'
p363
S'65.81'
p364
S'66.47'
p365
S'26238500'
p366
S'64.27'
p367
tp368
sS'2006-04-12'
p369
(S'68.01'
p370
S'68.17'
p371
S'66.30'
p372
S'66.71'
p373
S'26424800'
p374
S'64.50'
p375
tp376
sS'2006-04-11'
p377
(S'68.99'
p378
S'69.30'
p379
S'67.07'
p380
S'67.99'
p381
S'33547000'
p382
S'65.74'
p383
tp384
sS'2006-04-10'
p385
(S'70.29'
p386
S'70.93'
p387
S'68.45'
p388
S'68.67'
p389
S'32268400'
p390
S'66.40'
p391
tp392
sS'2006-04-17'
p393
(S'66.51'
p394
S'66.84'
p395
S'64.35'
p396
S'64.81'
p397
S'25783500'
p398
S'62.67'
p399
tp400
sS'2006-09-08'
p401
(S'73.37'
p402
S'73.57'
p403
S'71.91'
p404
S'72.52'
p405
S'31997200'
p406
S'70.12'
p407
tp408
sS'2005-06-07'
p409
(S'37.60'
p410
S'37.73'
p411
S'36.45'
p412
S'36.54'
p413
S'26616600'
p414
S'35.33'
p415
tp416
sS'2008-06-23'
p417
(S'174.74'
p418
S'175.88'
p419
S'171.56'
p420
S'173.16'
p421
S'23063600'
p422
S'167.43'
p423
tp424
sS'2004-11-03'
p425
(S'54.37'
p426
S'56.11'
p427
S'53.99'
p428
S'55.31'
p429
S'43006200'
p430
S'26.74'
p431
tp432
sS'2005-06-06'
p433
(S'38.33'
p434
S'38.63'
p435
S'37.56'
p436
S'37.92'
p437
S'28998800'
p438
S'36.67'
p439
tp440
sS'2006-12-12'
p441
(S'88.61'
p442
S'88.84'
p443
S'85.53'
p444
S'86.14'
p445
S'36665000'
p446
S'83.29'
p447
tp448
sS'2006-09-22'
p449
(S'74.30'
p450
S'74.34'
p451
S'72.58'
p452
S'73.00'
p453
S'23754000'
p454
S'70.58'
p455
tp456
sS'2007-11-19'
p457
(S'166.10'
p458
S'168.20'
p459
S'162.10'
p460
S'163.95'
p461
S'41196800'
p462
S'158.52'
p463
tp464
sS'2004-10-13'
p465
(S'38.87'
p466
S'39.76'
p467
S'38.74'
p468
S'39.75'
p469
S'41536000'
p470
S'19.22'
p471
tp472
sS'2006-08-11'
p473
(S'63.23'
p474
S'64.13'
p475
S'62.58'
p476
S'63.65'
p477
S'27768900'
p478
S'61.54'
p479
tp480
sS'2005-10-03'
p481
(S'54.16'
p482
S'54.54'
p483
S'53.68'
p484
S'54.44'
p485
S'18126900'
p486
S'52.64'
p487
tp488
sS'2009-06-01'
p489
(S'136.47'
p490
S'139.99'
p491
S'136.00'
p492
S'139.35'
p493
S'16160700'
p494
S'134.74'
p495
tp496
sS'2007-11-12'
p497
(S'165.28'
p498
S'167.70'
p499
S'150.63'
p500
S'153.76'
p501
S'63057700'
p502
S'148.67'
p503
tp504
sS'2007-11-13'
p505
(S'160.85'
p506
S'170.98'
p507
S'153.76'
p508
S'169.96'
p509
S'62034100'
p510
S'164.34'
p511
tp512
sS'2007-11-14'
p513
(S'177.16'
p514
S'177.57'
p515
S'163.74'
p516
S'166.11'
p517
S'51695400'
p518
S'160.61'
p519
tp520
sS'2007-11-15'
p521
(S'166.39'
p522
S'169.59'
p523
S'160.30'
p524
S'164.30'
p525
S'53095600'
p526
S'158.86'
p527
tp528
sS'2007-11-16'
p529
(S'165.30'
p530
S'167.02'
p531
S'159.33'
p532
S'166.39'
p533
S'49391300'
p534
S'160.88'
p535
tp536
sS'2004-11-09'
p537
(S'54.23'
p538
S'54.55'
p539
S'53.38'
p540
S'54.05'
p541
S'16991600'
p542
S'26.13'
p543
tp544
sS'2004-09-13'
p545
(S'35.88'
p546
S'36.07'
p547
S'35.32'
p548
S'35.59'
p549
S'10070600'
p550
S'17.21'
p551
tp552
sS'2004-09-10'
p553
(S'35.66'
p554
S'36.23'
p555
S'35.46'
p556
S'35.87'
p557
S'11714800'
p558
S'17.34'
p559
tp560
sS'2004-09-16'
p561
(S'35.20'
p562
S'36.76'
p563
S'35.08'
p564
S'36.35'
p565
S'17925600'
p566
S'17.57'
p567
tp568
sS'2009-06-03'
p569
(S'140.00'
p570
S'141.11'
p571
S'139.07'
p572
S'140.95'
p573
S'20185700'
p574
S'136.29'
p575
tp576
sS'2007-03-28'
p577
(S'94.88'
p578
S'95.40'
p579
S'93.15'
p580
S'93.24'
p581
S'33654900'
p582
S'90.15'
p583
tp584
sS'2007-03-29'
p585
(S'94.19'
p586
S'94.19'
p587
S'92.23'
p588
S'93.75'
p589
S'25918700'
p590
S'90.65'
p591
tp592
sS'2007-03-26'
p593
(S'93.99'
p594
S'95.90'
p595
S'93.30'
p596
S'95.85'
p597
S'30892400'
p598
S'92.68'
p599
tp600
sS'2007-03-27'
p601
(S'95.71'
p602
S'96.83'
p603
S'95.00'
p604
S'95.46'
p605
S'33287600'
p606
S'92.30'
p607
tp608
sS'2009-06-02'
p609
(S'138.99'
p610
S'141.34'
p611
S'138.35'
p612
S'139.49'
p613
S'16293700'
p614
S'134.87'
p615
tp616
sS'2007-03-22'
p617
(S'93.73'
p618
S'94.36'
p619
S'93.00'
p620
S'93.96'
p621
S'20053300'
p622
S'90.85'
p623
tp624
sS'2007-03-23'
p625
(S'93.35'
p626
S'94.07'
p627
S'93.30'
p628
S'93.52'
p629
S'16103000'
p630
S'90.43'
p631
tp632
sS'2007-03-20'
p633
(S'91.35'
p634
S'91.84'
p635
S'91.06'
p636
S'91.48'
p637
S'17461300'
p638
S'88.45'
p639
tp640
sS'2007-03-21'
p641
(S'91.99'
p642
S'94.00'
p643
S'91.65'
p644
S'93.87'
p645
S'24532000'
p646
S'90.76'
p647
tp648
sS'2008-04-15'
p649
(S'149.40'
p650
S'149.72'
p651
S'145.72'
p652
S'148.38'
p653
S'24929900'
p654
S'143.47'
p655
tp656
sS'2008-04-14'
p657
(S'146.77'
p658
S'149.25'
p659
S'144.54'
p660
S'147.78'
p661
S'30181700'
p662
S'142.89'
p663
tp664
sS'2008-04-17'
p665
(S'154.17'
p666
S'156.00'
p667
S'153.35'
p668
S'154.49'
p669
S'25152400'
p670
S'149.38'
p671
tp672
sS'2008-04-16'
p673
(S'151.72'
p674
S'154.10'
p675
S'150.62'
p676
S'153.70'
p677
S'28420500'
p678
S'148.61'
p679
tp680
sS'2008-04-11'
p681
(S'152.72'
p682
S'153.30'
p683
S'146.40'
p684
S'147.14'
p685
S'43217000'
p686
S'142.27'
p687
tp688
sS'2008-04-10'
p689
(S'151.13'
p690
S'155.42'
p691
S'150.60'
p692
S'154.55'
p693
S'34134400'
p694
S'149.44'
p695
tp696
sS'2005-06-20'
p697
(S'37.85'
p698
S'38.09'
p699
S'37.45'
p700
S'37.61'
p701
S'11561300'
p702
S'36.37'
p703
tp704
sS'2005-07-21'
p705
(S'43.70'
p706
S'44.04'
p707
S'42.90'
p708
S'43.29'
p709
S'14438000'
p710
S'41.86'
p711
tp712
sS'2008-01-30'
p713
(S'131.37'
p714
S'135.45'
p715
S'130.00'
p716
S'132.18'
p717
S'44394700'
p718
S'127.81'
p719
tp720
sS'2008-01-31'
p721
(S'129.45'
p722
S'136.65'
p723
S'129.40'
p724
S'135.36'
p725
S'48059800'
p726
S'130.88'
p727
tp728
sS'2006-12-22'
p729
(S'83.46'
p730
S'84.04'
p731
S'81.60'
p732
S'82.20'
p733
S'21903700'
p734
S'79.48'
p735
tp736
sS'2008-04-18'
p737
(S'159.12'
p738
S'162.26'
p739
S'158.38'
p740
S'161.04'
p741
S'36670200'
p742
S'155.71'
p743
tp744
sS'2005-07-01'
p745
(S'36.83'
p746
S'36.97'
p747
S'36.29'
p748
S'36.50'
p749
S'8928600'
p750
S'35.29'
p751
tp752
sS'2006-09-06'
p753
(S'71.08'
p754
S'71.69'
p755
S'69.70'
p756
S'70.03'
p757
S'34789400'
p758
S'67.71'
p759
tp760
sS'2008-11-19'
p761
(S'89.44'
p762
S'91.58'
p763
S'86.21'
p764
S'86.29'
p765
S'41853600'
p766
S'83.43'
p767
tp768
sS'2004-10-26'
p769
(S'47.45'
p770
S'48.05'
p771
S'46.97'
p772
S'47.97'
p773
S'21227200'
p774
S'23.19'
p775
tp776
sS'2008-11-18'
p777
(S'89.64'
p778
S'90.99'
p779
S'86.86'
p780
S'89.91'
p781
S'43203400'
p782
S'86.93'
p783
tp784
sS'2005-04-01'
p785
(S'42.09'
p786
S'42.18'
p787
S'40.57'
p788
S'40.89'
p789
S'22903000'
p790
S'39.54'
p791
tp792
sS'2007-01-19'
p793
(S'88.63'
p794
S'89.65'
p795
S'88.12'
p796
S'88.50'
p797
S'48731200'
p798
S'85.57'
p799
tp800
sS'2007-01-18'
p801
(S'92.10'
p802
S'92.11'
p803
S'89.05'
p804
S'89.07'
p805
S'84450200'
p806
S'86.12'
p807
tp808
sS'2005-07-27'
p809
(S'43.83'
p810
S'44.07'
p811
S'42.67'
p812
S'43.99'
p813
S'10133900'
p814
S'42.53'
p815
tp816
sS'2007-01-11'
p817
(S'95.94'
p818
S'96.78'
p819
S'95.10'
p820
S'95.80'
p821
S'51437600'
p822
S'92.63'
p823
tp824
sS'2007-01-10'
p825
(S'94.75'
p826
S'97.80'
p827
S'93.45'
p828
S'97.00'
p829
S'105460000'
p830
S'93.79'
p831
tp832
sS'2007-01-12'
p833
(S'94.59'
p834
S'95.06'
p835
S'93.23'
p836
S'94.62'
p837
S'46881800'
p838
S'91.49'
p839
tp840
sS'2007-01-17'
p841
(S'97.56'
p842
S'97.60'
p843
S'94.82'
p844
S'94.95'
p845
S'58795000'
p846
S'91.81'
p847
tp848
sS'2007-01-16'
p849
(S'95.68'
p850
S'97.25'
p851
S'95.45'
p852
S'97.10'
p853
S'44431300'
p854
S'93.89'
p855
tp856
sS'2008-08-25'
p857
(S'176.15'
p858
S'176.23'
p859
S'171.66'
p860
S'172.55'
p861
S'17300900'
p862
S'166.84'
p863
tp864
sS'2008-08-26'
p865
(S'172.76'
p866
S'174.88'
p867
S'172.61'
p868
S'173.64'
p869
S'15912500'
p870
S'167.89'
p871
tp872
sS'2008-08-27'
p873
(S'173.31'
p874
S'175.76'
p875
S'172.19'
p876
S'174.67'
p877
S'17063600'
p878
S'168.89'
p879
tp880
sS'2008-08-20'
p881
(S'174.77'
p882
S'176.94'
p883
S'173.61'
p884
S'175.84'
p885
S'18105400'
p886
S'170.02'
p887
tp888
sS'2008-08-21'
p889
(S'174.47'
p890
S'175.45'
p891
S'171.89'
p892
S'174.29'
p893
S'19276600'
p894
S'168.52'
p895
tp896
sS'2008-08-22'
p897
(S'175.82'
p898
S'177.50'
p899
S'175.57'
p900
S'176.79'
p901
S'15700400'
p902
S'170.94'
p903
tp904
sS'2006-12-15'
p905
(S'89.02'
p906
S'89.22'
p907
S'87.33'
p908
S'87.72'
p909
S'26426400'
p910
S'84.82'
p911
tp912
sS'2008-05-23'
p913
(S'180.77'
p914
S'181.99'
p915
S'177.80'
p916
S'181.17'
p917
S'32389900'
p918
S'175.17'
p919
tp920
sS'2008-05-22'
p921
(S'179.26'
p922
S'181.33'
p923
S'172.00'
p924
S'177.05'
p925
S'43097700'
p926
S'171.19'
p927
tp928
sS'2008-05-21'
p929
(S'185.67'
p930
S'187.95'
p931
S'176.25'
p932
S'178.19'
p933
S'41344900'
p934
S'172.29'
p935
tp936
sS'2008-05-20'
p937
(S'181.82'
p938
S'186.16'
p939
S'180.12'
p940
S'185.90'
p941
S'34637500'
p942
S'179.75'
p943
tp944
sS'2008-05-27'
p945
(S'182.75'
p946
S'186.43'
p947
S'181.84'
p948
S'186.43'
p949
S'28210900'
p950
S'180.26'
p951
tp952
sS'2008-08-29'
p953
(S'172.96'
p954
S'173.50'
p955
S'169.04'
p956
S'169.53'
p957
S'21403200'
p958
S'163.92'
p959
tp960
sS'2008-03-05'
p961
(S'123.58'
p962
S'125.14'
p963
S'122.25'
p964
S'124.49'
p965
S'43637000'
p966
S'120.37'
p967
tp968
sS'2008-03-04'
p969
(S'121.99'
p970
S'124.88'
p971
S'120.40'
p972
S'124.62'
p973
S'63763700'
p974
S'120.50'
p975
tp976
sS'2004-11-22'
p977
(S'61.80'
p978
S'64.00'
p979
S'57.90'
p980
S'61.35'
p981
S'91721800'
p982
S'29.66'
p983
tp984
sS'2007-05-07'
p985
(S'101.08'
p986
S'104.35'
p987
S'101.01'
p988
S'103.92'
p989
S'30769900'
p990
S'100.48'
p991
tp992
sS'2007-05-04'
p993
(S'100.80'
p994
S'101.60'
p995
S'100.50'
p996
S'100.81'
p997
S'13642400'
p998
S'97.47'
p999
tp1000
sS'2006-12-13'
p1001
(S'87.95'
p1002
S'89.07'
p1003
S'87.15'
p1004
S'89.05'
p1005
S'30609000'
p1006
S'86.10'
p1007
tp1008
sS'2007-05-02'
p1009
(S'99.65'
p1010
S'100.54'
p1011
S'99.47'
p1012
S'100.39'
p1013
S'18040900'
p1014
S'97.07'
p1015
tp1016
sS'2007-05-03'
p1017
(S'100.73'
p1018
S'101.45'
p1019
S'100.01'
p1020
S'100.40'
p1021
S'20574200'
p1022
S'97.08'
p1023
tp1024
sS'2004-11-24'
p1025
(S'61.69'
p1026
S'65.20'
p1027
S'61.55'
p1028
S'64.05'
p1029
S'49671000'
p1030
S'30.97'
p1031
tp1032
sS'2007-05-01'
p1033
(S'99.59'
p1034
S'100.35'
p1035
S'98.55'
p1036
S'99.47'
p1037
S'19018700'
p1038
S'96.18'
p1039
tp1040
sS'2004-11-29'
p1041
(S'68.95'
p1042
S'69.57'
p1043
S'67.41'
p1044
S'68.44'
p1045
S'61175600'
p1046
S'33.09'
p1047
tp1048
sS'2007-05-08'
p1049
(S'103.47'
p1050
S'105.15'
p1051
S'103.42'
p1052
S'105.06'
p1053
S'27999900'
p1054
S'101.58'
p1055
tp1056
sS'2007-05-09'
p1057
(S'104.91'
p1058
S'106.96'
p1059
S'104.89'
p1060
S'106.88'
p1061
S'25634200'
p1062
S'103.34'
p1063
tp1064
sS'2008-09-30'
p1065
(S'108.25'
p1066
S'115.00'
p1067
S'106.30'
p1068
S'113.66'
p1069
S'58095800'
p1070
S'109.90'
p1071
tp1072
sS'2007-09-06'
p1073
(S'135.56'
p1074
S'137.57'
p1075
S'132.71'
p1076
S'135.01'
p1077
S'67902200'
p1078
S'130.54'
p1079
tp1080
sS'2006-08-25'
p1081
(S'67.34'
p1082
S'69.05'
p1083
S'67.31'
p1084
S'68.75'
p1085
S'19427100'
p1086
S'66.47'
p1087
tp1088
sS'2005-06-30'
p1089
(S'36.61'
p1090
S'37.16'
p1091
S'36.31'
p1092
S'36.81'
p1093
S'14942500'
p1094
S'35.59'
p1095
tp1096
sS'2004-11-17'
p1097
(S'55.19'
p1098
S'55.45'
p1099
S'54.22'
p1100
S'54.90'
p1101
S'14205400'
p1102
S'26.54'
p1103
tp1104
sS'2007-09-07'
p1105
(S'132.01'
p1106
S'132.30'
p1107
S'130.00'
p1108
S'131.77'
p1109
S'51092000'
p1110
S'127.41'
p1111
tp1112
sS'2005-10-11'
p1113
(S'51.23'
p1114
S'51.87'
p1115
S'50.40'
p1116
S'51.59'
p1117
S'43781600'
p1118
S'49.88'
p1119
tp1120
sS'2005-10-10'
p1121
(S'51.76'
p1122
S'51.91'
p1123
S'50.28'
p1124
S'50.37'
p1125
S'18125200'
p1126
S'48.70'
p1127
tp1128
sS'2005-10-13'
p1129
(S'49.44'
p1130
S'53.95'
p1131
S'49.27'
p1132
S'53.74'
p1133
S'66627700'
p1134
S'51.96'
p1135
tp1136
sS'2005-10-12'
p1137
(S'48.65'
p1138
S'50.30'
p1139
S'47.87'
p1140
S'49.25'
p1141
S'96338800'
p1142
S'47.62'
p1143
tp1144
sS'2007-09-04'
p1145
(S'139.94'
p1146
S'145.73'
p1147
S'139.84'
p1148
S'144.16'
p1149
S'47030100'
p1150
S'139.39'
p1151
tp1152
sS'2005-12-19'
p1153
(S'71.11'
p1154
S'72.60'
p1155
S'71.04'
p1156
S'71.38'
p1157
S'18903400'
p1158
S'69.02'
p1159
tp1160
sS'2005-10-19'
p1161
(S'52.07'
p1162
S'54.96'
p1163
S'51.21'
p1164
S'54.94'
p1165
S'36024400'
p1166
S'53.12'
p1167
tp1168
sS'2005-12-16'
p1169
(S'72.14'
p1170
S'72.30'
p1171
S'71.06'
p1172
S'71.11'
p1173
S'23970400'
p1174
S'68.76'
p1175
tp1176
sS'2005-12-15'
p1177
(S'72.68'
p1178
S'72.86'
p1179
S'71.35'
p1180
S'72.18'
p1181
S'20041500'
p1182
S'69.79'
p1183
tp1184
sS'2005-12-14'
p1185
(S'72.53'
p1186
S'73.30'
p1187
S'70.27'
p1188
S'72.01'
p1189
S'51811300'
p1190
S'69.63'
p1191
tp1192
sS'2005-12-13'
p1193
(S'74.85'
p1194
S'75.46'
p1195
S'74.21'
p1196
S'74.98'
p1197
S'17636300'
p1198
S'72.50'
p1199
tp1200
sS'2005-12-12'
p1201
(S'74.87'
p1202
S'75.35'
p1203
S'74.56'
p1204
S'74.91'
p1205
S'18749800'
p1206
S'72.43'
p1207
tp1208
sS'2007-09-11'
p1209
(S'137.90'
p1210
S'138.30'
p1211
S'133.75'
p1212
S'135.49'
p1213
S'34710200'
p1214
S'131.01'
p1215
tp1216
sS'2007-09-10'
p1217
(S'136.99'
p1218
S'138.04'
p1219
S'133.95'
p1220
S'136.71'
p1221
S'53137100'
p1222
S'132.19'
p1223
tp1224
sS'2007-09-13'
p1225
(S'138.83'
p1226
S'139.00'
p1227
S'136.65'
p1228
S'137.20'
p1229
S'23434400'
p1230
S'132.66'
p1231
tp1232
sS'2007-09-12'
p1233
(S'135.99'
p1234
S'139.40'
p1235
S'135.75'
p1236
S'136.85'
p1237
S'36527500'
p1238
S'132.32'
p1239
tp1240
sS'2007-09-14'
p1241
(S'136.57'
p1242
S'138.98'
p1243
S'136.20'
p1244
S'138.81'
p1245
S'21690000'
p1246
S'134.22'
p1247
tp1248
sS'2007-09-17'
p1249
(S'138.99'
p1250
S'140.59'
p1251
S'137.60'
p1252
S'138.41'
p1253
S'28334700'
p1254
S'133.83'
p1255
tp1256
sS'2004-09-08'
p1257
(S'35.70'
p1258
S'36.57'
p1259
S'35.68'
p1260
S'36.35'
p1261
S'12268800'
p1262
S'17.57'
p1263
tp1264
sS'2007-09-19'
p1265
(S'143.02'
p1266
S'143.16'
p1267
S'139.40'
p1268
S'140.77'
p1269
S'36674300'
p1270
S'136.11'
p1271
tp1272
sS'2007-09-18'
p1273
(S'139.06'
p1274
S'142.85'
p1275
S'137.83'
p1276
S'140.92'
p1277
S'38003200'
p1278
S'136.26'
p1279
tp1280
sS'2005-08-19'
p1281
(S'46.28'
p1282
S'46.70'
p1283
S'45.77'
p1284
S'45.83'
p1285
S'13448900'
p1286
S'44.31'
p1287
tp1288
sS'2007-02-14'
p1289
(S'84.63'
p1290
S'85.64'
p1291
S'84.57'
p1292
S'85.30'
p1293
S'18142200'
p1294
S'82.48'
p1295
tp1296
sS'2008-01-16'
p1297
(S'165.23'
p1298
S'169.01'
p1299
S'156.70'
p1300
S'159.64'
p1301
S'79065900'
p1302
S'154.36'
p1303
tp1304
sS'2007-02-16'
p1305
(S'85.25'
p1306
S'85.41'
p1307
S'84.66'
p1308
S'84.83'
p1309
S'14281000'
p1310
S'82.02'
p1311
tp1312
sS'2007-04-30'
p1313
(S'100.09'
p1314
S'101.00'
p1315
S'99.67'
p1316
S'99.80'
p1317
S'22018200'
p1318
S'96.50'
p1319
tp1320
sS'2007-06-08'
p1321
(S'125.82'
p1322
S'125.83'
p1323
S'122.29'
p1324
S'124.49'
p1325
S'44345800'
p1326
S'120.37'
p1327
tp1328
sS'2007-02-12'
p1329
(S'84.43'
p1330
S'85.18'
p1331
S'83.63'
p1332
S'84.88'
p1333
S'25859700'
p1334
S'82.07'
p1335
tp1336
sS'2007-02-13'
p1337
(S'85.16'
p1338
S'85.29'
p1339
S'84.30'
p1340
S'84.70'
p1341
S'20749500'
p1342
S'81.90'
p1343
tp1344
sS'2005-04-07'
p1345
(S'42.33'
p1346
S'43.75'
p1347
S'42.25'
p1348
S'43.56'
p1349
S'18106700'
p1350
S'42.12'
p1351
tp1352
sS'2005-11-04'
p1353
(S'60.35'
p1354
S'61.24'
p1355
S'59.62'
p1356
S'61.15'
p1357
S'31358400'
p1358
S'59.13'
p1359
tp1360
sS'2005-11-07'
p1361
(S'60.85'
p1362
S'61.67'
p1363
S'60.14'
p1364
S'60.23'
p1365
S'22815400'
p1366
S'58.24'
p1367
tp1368
sS'2005-04-04'
p1369
(S'40.99'
p1370
S'41.31'
p1371
S'40.16'
p1372
S'41.09'
p1373
S'20714800'
p1374
S'39.73'
p1375
tp1376
sS'2005-11-01'
p1377
(S'57.24'
p1378
S'58.14'
p1379
S'56.87'
p1380
S'57.50'
p1381
S'26774500'
p1382
S'55.60'
p1383
tp1384
sS'2005-11-03'
p1385
(S'60.26'
p1386
S'62.32'
p1387
S'60.07'
p1388
S'61.85'
p1389
S'31585100'
p1390
S'59.80'
p1391
tp1392
sS'2007-03-30'
p1393
(S'94.28'
p1394
S'94.68'
p1395
S'92.75'
p1396
S'92.91'
p1397
S'21448500'
p1398
S'89.84'
p1399
tp1400
sS'2006-02-27'
p1401
(S'71.99'
p1402
S'72.12'
p1403
S'70.65'
p1404
S'70.99'
p1405
S'28258600'
p1406
S'68.64'
p1407
tp1408
sS'2004-12-08'
p1409
(S'63.08'
p1410
S'64.43'
p1411
S'62.05'
p1412
S'63.28'
p1413
S'24710800'
p1414
S'30.59'
p1415
tp1416
sS'2008-01-15'
p1417
(S'177.72'
p1418
S'179.22'
p1419
S'164.66'
p1420
S'169.04'
p1421
S'83688500'
p1422
S'163.45'
p1423
tp1424
sS'2007-08-09'
p1425
(S'131.11'
p1426
S'133.00'
p1427
S'125.09'
p1428
S'126.39'
p1429
S'40192700'
p1430
S'122.21'
p1431
tp1432
sS'2007-08-08'
p1433
(S'136.76'
p1434
S'136.86'
p1435
S'132.00'
p1436
S'134.01'
p1437
S'28860600'
p1438
S'129.58'
p1439
tp1440
sS'2005-03-18'
p1441
(S'43.33'
p1442
S'43.44'
p1443
S'42.50'
p1444
S'42.96'
p1445
S'33576800'
p1446
S'41.54'
p1447
tp1448
sS'2006-08-10'
p1449
(S'63.25'
p1450
S'64.81'
p1451
S'62.70'
p1452
S'64.07'
p1453
S'24920000'
p1454
S'61.95'
p1455
tp1456
sS'2007-08-07'
p1457
(S'134.94'
p1458
S'137.24'
p1459
S'132.63'
p1460
S'135.03'
p1461
S'33926300'
p1462
S'130.56'
p1463
tp1464
sS'2007-08-06'
p1465
(S'132.90'
p1466
S'135.27'
p1467
S'128.30'
p1468
S'135.25'
p1469
S'33041800'
p1470
S'130.77'
p1471
tp1472
sS'2007-08-01'
p1473
(S'133.64'
p1474
S'135.38'
p1475
S'127.77'
p1476
S'135.00'
p1477
S'62505600'
p1478
S'130.53'
p1479
tp1480
sS'2007-08-03'
p1481
(S'135.26'
p1482
S'135.95'
p1483
S'131.50'
p1484
S'131.85'
p1485
S'24256700'
p1486
S'127.49'
p1487
tp1488
sS'2007-08-02'
p1489
(S'136.65'
p1490
S'136.96'
p1491
S'134.15'
p1492
S'136.49'
p1493
S'30451600'
p1494
S'131.97'
p1495
tp1496
sS'2006-10-23'
p1497
(S'79.99'
p1498
S'81.90'
p1499
S'79.75'
p1500
S'81.46'
p1501
S'29732400'
p1502
S'78.76'
p1503
tp1504
sS'2005-05-04'
p1505
(S'36.11'
p1506
S'37.20'
p1507
S'36.10'
p1508
S'37.15'
p1509
S'16006300'
p1510
S'35.92'
p1511
tp1512
sS'2006-10-20'
p1513
(S'78.97'
p1514
S'79.99'
p1515
S'78.67'
p1516
S'79.95'
p1517
S'22836200'
p1518
S'77.30'
p1519
tp1520
sS'2006-10-27'
p1521
(S'81.75'
p1522
S'82.45'
p1523
S'80.01'
p1524
S'80.41'
p1525
S'21248800'
p1526
S'77.75'
p1527
tp1528
sS'2008-01-10'
p1529
(S'177.58'
p1530
S'181.00'
p1531
S'175.41'
p1532
S'178.02'
p1533
S'52963400'
p1534
S'172.13'
p1535
tp1536
sS'2006-10-25'
p1537
(S'81.35'
p1538
S'82.00'
p1539
S'81.01'
p1540
S'81.68'
p1541
S'17329100'
p1542
S'78.98'
p1543
tp1544
sS'2006-10-24'
p1545
(S'81.21'
p1546
S'81.68'
p1547
S'80.20'
p1548
S'81.05'
p1549
S'16543300'
p1550
S'78.37'
p1551
tp1552
sS'2008-01-11'
p1553
(S'176.00'
p1554
S'177.85'
p1555
S'170.00'
p1556
S'172.69'
p1557
S'44010200'
p1558
S'166.98'
p1559
tp1560
sS'2007-02-23'
p1561
(S'89.16'
p1562
S'90.34'
p1563
S'88.85'
p1564
S'89.07'
p1565
S'18496200'
p1566
S'86.12'
p1567
tp1568
sS'2009-04-03'
p1569
(S'114.19'
p1570
S'116.13'
p1571
S'113.52'
p1572
S'115.99'
p1573
S'22722900'
p1574
S'112.15'
p1575
tp1576
sS'2009-04-02'
p1577
(S'110.14'
p1578
S'114.75'
p1579
S'109.78'
p1580
S'112.71'
p1581
S'29013100'
p1582
S'108.98'
p1583
tp1584
sS'2009-04-01'
p1585
(S'104.09'
p1586
S'109.00'
p1587
S'103.89'
p1588
S'108.69'
p1589
S'21049000'
p1590
S'105.09'
p1591
tp1592
sS'2007-06-04'
p1593
(S'118.63'
p1594
S'121.73'
p1595
S'117.90'
p1596
S'121.33'
p1597
S'31666900'
p1598
S'117.31'
p1599
tp1600
sS'2009-04-07'
p1601
(S'116.53'
p1602
S'116.67'
p1603
S'114.19'
p1604
S'115.00'
p1605
S'19163600'
p1606
S'111.19'
p1607
tp1608
sS'2009-04-06'
p1609
(S'114.94'
p1610
S'118.75'
p1611
S'113.28'
p1612
S'118.45'
p1613
S'23502300'
p1614
S'114.53'
p1615
tp1616
sS'2008-11-28'
p1617
(S'94.70'
p1618
S'94.76'
p1619
S'91.86'
p1620
S'92.67'
p1621
S'10634800'
p1622
S'89.60'
p1623
tp1624
sS'2006-08-29'
p1625
(S'66.99'
p1626
S'67.26'
p1627
S'65.12'
p1628
S'66.48'
p1629
S'33833300'
p1630
S'64.28'
p1631
tp1632
sS'2008-11-26'
p1633
(S'89.92'
p1634
S'95.25'
p1635
S'89.85'
p1636
S'95.00'
p1637
S'32137000'
p1638
S'91.86'
p1639
tp1640
sS'2008-11-24'
p1641
(S'85.21'
p1642
S'94.79'
p1643
S'84.84'
p1644
S'92.95'
p1645
S'51509200'
p1646
S'89.87'
p1647
tp1648
sS'2008-11-25'
p1649
(S'94.63'
p1650
S'94.71'
p1651
S'88.16'
p1652
S'90.80'
p1653
S'44117600'
p1654
S'87.80'
p1655
tp1656
sS'2006-08-22'
p1657
(S'66.68'
p1658
S'68.32'
p1659
S'66.50'
p1660
S'67.62'
p1661
S'20606000'
p1662
S'65.38'
p1663
tp1664
sS'2006-08-23'
p1665
(S'68.00'
p1666
S'68.65'
p1667
S'66.94'
p1668
S'67.31'
p1669
S'19152100'
p1670
S'65.08'
p1671
tp1672
sS'2008-11-20'
p1673
(S'85.24'
p1674
S'86.45'
p1675
S'80.00'
p1676
S'80.49'
p1677
S'61314800'
p1678
S'77.83'
p1679
tp1680
sS'2008-11-21'
p1681
(S'81.93'
p1682
S'84.12'
p1683
S'79.14'
p1684
S'82.58'
p1685
S'56045400'
p1686
S'79.85'
p1687
tp1688
sS'2004-10-18'
p1689
(S'44.70'
p1690
S'47.75'
p1691
S'44.70'
p1692
S'47.75'
p1693
S'42884000'
p1694
S'23.08'
p1695
tp1696
sS'2004-10-19'
p1697
(S'48.10'
p1698
S'48.35'
p1699
S'47.31'
p1700
S'47.42'
p1701
S'28642600'
p1702
S'22.93'
p1703
tp1704
sS'2006-01-18'
p1705
(S'83.08'
p1706
S'84.05'
p1707
S'81.85'
p1708
S'82.49'
p1709
S'42879900'
p1710
S'79.76'
p1711
tp1712
sS'2006-01-19'
p1713
(S'81.25'
p1714
S'81.66'
p1715
S'78.74'
p1716
S'79.04'
p1717
S'60566000'
p1718
S'76.42'
p1719
tp1720
sS'2004-10-11'
p1721
(S'38.80'
p1722
S'39.06'
p1723
S'38.20'
p1724
S'38.59'
p1725
S'11566800'
p1726
S'18.66'
p1727
tp1728
sS'2004-10-12'
p1729
(S'38.50'
p1730
S'38.58'
p1731
S'37.65'
p1732
S'38.29'
p1733
S'16435400'
p1734
S'18.51'
p1735
tp1736
sS'2006-01-17'
p1737
(S'85.70'
p1738
S'86.38'
p1739
S'83.87'
p1740
S'84.71'
p1741
S'29843700'
p1742
S'81.91'
p1743
tp1744
sS'2006-01-10'
p1745
(S'76.25'
p1746
S'81.89'
p1747
S'75.83'
p1748
S'80.86'
p1749
S'81423900'
p1750
S'78.18'
p1751
tp1752
sS'2006-01-11'
p1753
(S'83.84'
p1754
S'84.80'
p1755
S'82.59'
p1756
S'83.90'
p1757
S'53349800'
p1758
S'81.12'
p1759
tp1760
sS'2006-01-12'
p1761
(S'84.97'
p1762
S'86.40'
p1763
S'83.62'
p1764
S'84.29'
p1765
S'45743200'
p1766
S'81.50'
p1767
tp1768
sS'2006-01-13'
p1769
(S'84.99'
p1770
S'86.01'
p1771
S'84.60'
p1772
S'85.59'
p1773
S'27725200'
p1774
S'82.76'
p1775
tp1776
sS'2005-07-20'
p1777
(S'42.86'
p1778
S'43.80'
p1779
S'42.65'
p1780
S'43.63'
p1781
S'16192700'
p1782
S'42.19'
p1783
tp1784
sS'2005-11-16'
p1785
(S'63.15'
p1786
S'65.06'
p1787
S'63.09'
p1788
S'64.95'
p1789
S'28018400'
p1790
S'62.80'
p1791
tp1792
sS'2006-08-21'
p1793
(S'67.30'
p1794
S'67.31'
p1795
S'66.15'
p1796
S'66.56'
p1797
S'18793800'
p1798
S'64.36'
p1799
tp1800
sS'2005-07-25'
p1801
(S'43.99'
p1802
S'44.28'
p1803
S'43.73'
p1804
S'43.81'
p1805
S'10522400'
p1806
S'42.36'
p1807
tp1808
sS'2005-07-26'
p1809
(S'44.01'
p1810
S'44.11'
p1811
S'43.36'
p1812
S'43.63'
p1813
S'9592600'
p1814
S'42.19'
p1815
tp1816
sS'2005-11-17'
p1817
(S'65.59'
p1818
S'65.88'
p1819
S'64.25'
p1820
S'64.52'
p1821
S'24150200'
p1822
S'62.38'
p1823
tp1824
sS'2005-07-28'
p1825
(S'43.85'
p1826
S'44.00'
p1827
S'43.30'
p1828
S'43.80'
p1829
S'8975400'
p1830
S'42.35'
p1831
tp1832
sS'2005-07-29'
p1833
(S'43.56'
p1834
S'44.38'
p1835
S'42.26'
p1836
S'42.65'
p1837
S'20074300'
p1838
S'41.24'
p1839
tp1840
sS'2006-05-09'
p1841
(S'71.82'
p1842
S'72.56'
p1843
S'70.62'
p1844
S'71.03'
p1845
S'18988100'
p1846
S'68.68'
p1847
tp1848
sS'2007-02-05'
p1849
(S'84.30'
p1850
S'85.23'
p1851
S'83.94'
p1852
S'83.94'
p1853
S'20673300'
p1854
S'81.16'
p1855
tp1856
sS'2005-03-11'
p1857
(S'40.21'
p1858
S'40.59'
p1859
S'39.80'
p1860
S'40.27'
p1861
S'22601100'
p1862
S'38.94'
p1863
tp1864
sS'2005-04-13'
p1865
(S'42.95'
p1866
S'42.99'
p1867
S'40.39'
p1868
S'41.04'
p1869
S'48998100'
p1870
S'39.68'
p1871
tp1872
sS'2005-03-10'
p1873
(S'39.53'
p1874
S'40.26'
p1875
S'39.10'
p1876
S'39.83'
p1877
S'27753900'
p1878
S'38.51'
p1879
tp1880
sS'2006-07-03'
p1881
(S'57.52'
p1882
S'58.18'
p1883
S'57.34'
p1884
S'57.95'
p1885
S'6956100'
p1886
S'56.03'
p1887
tp1888
sS'2006-07-05'
p1889
(S'57.15'
p1890
S'57.60'
p1891
S'56.56'
p1892
S'57.00'
p1893
S'18508600'
p1894
S'55.11'
p1895
tp1896
sS'2006-07-07'
p1897
(S'55.48'
p1898
S'56.55'
p1899
S'54.67'
p1900
S'55.40'
p1901
S'28548600'
p1902
S'53.57'
p1903
tp1904
sS'2006-08-24'
p1905
(S'67.89'
p1906
S'68.19'
p1907
S'66.27'
p1908
S'67.81'
p1909
S'23399700'
p1910
S'65.57'
p1911
tp1912
sS'2007-12-20'
p1913
(S'185.43'
p1914
S'187.83'
p1915
S'183.33'
p1916
S'187.21'
p1917
S'27644900'
p1918
S'181.01'
p1919
tp1920
sS'2007-12-21'
p1921
(S'190.12'
p1922
S'193.91'
p1923
S'189.89'
p1924
S'193.91'
p1925
S'35498600'
p1926
S'187.49'
p1927
tp1928
sS'2006-03-10'
p1929
(S'64.05'
p1930
S'64.49'
p1931
S'62.45'
p1932
S'63.19'
p1933
S'37255100'
p1934
S'61.10'
p1935
tp1936
sS'2007-12-24'
p1937
(S'195.03'
p1938
S'199.33'
p1939
S'194.79'
p1940
S'198.80'
p1941
S'17150100'
p1942
S'192.22'
p1943
tp1944
sS'2007-12-26'
p1945
(S'199.01'
p1946
S'200.96'
p1947
S'196.82'
p1948
S'198.95'
p1949
S'25133300'
p1950
S'192.37'
p1951
tp1952
sS'2007-12-27'
p1953
(S'198.95'
p1954
S'202.96'
p1955
S'197.80'
p1956
S'198.57'
p1957
S'28411700'
p1958
S'192.00'
p1959
tp1960
sS'2007-12-28'
p1961
(S'200.59'
p1962
S'201.56'
p1963
S'196.88'
p1964
S'199.83'
p1965
S'24987400'
p1966
S'193.22'
p1967
tp1968
sS'2005-03-31'
p1969
(S'42.45'
p1970
S'42.52'
p1971
S'41.59'
p1972
S'41.67'
p1973
S'22719100'
p1974
S'40.29'
p1975
tp1976
sS'2005-06-22'
p1977
(S'38.26'
p1978
S'38.60'
p1979
S'38.14'
p1980
S'38.55'
p1981
S'15175900'
p1982
S'37.27'
p1983
tp1984
sS'2009-01-30'
p1985
(S'92.60'
p1986
S'93.62'
p1987
S'90.01'
p1988
S'90.13'
p1989
S'23267100'
p1990
S'87.15'
p1991
tp1992
sS'2005-03-17'
p1993
(S'41.53'
p1994
S'42.88'
p1995
S'41.32'
p1996
S'42.25'
p1997
S'28640000'
p1998
S'40.85'
p1999
tp2000
sS'2005-03-16'
p2001
(S'41.21'
p2002
S'42.31'
p2003
S'40.78'
p2004
S'41.18'
p2005
S'24921900'
p2006
S'39.82'
p2007
tp2008
sS'2008-12-05'
p2009
(S'90.35'
p2010
S'94.49'
p2011
S'88.86'
p2012
S'94.00'
p2013
S'37278400'
p2014
S'90.89'
p2015
tp2016
sS'2008-12-04'
p2017
(S'94.43'
p2018
S'95.21'
p2019
S'89.06'
p2020
S'91.41'
p2021
S'38977500'
p2022
S'88.39'
p2023
tp2024
sS'2006-04-20'
p2025
(S'69.51'
p2026
S'70.00'
p2027
S'66.20'
p2028
S'67.63'
p2029
S'59535100'
p2030
S'65.39'
p2031
tp2032
sS'2006-04-21'
p2033
(S'68.19'
p2034
S'68.64'
p2035
S'66.47'
p2036
S'67.04'
p2037
S'28178100'
p2038
S'64.82'
p2039
tp2040
sS'2008-12-01'
p2041
(S'91.30'
p2042
S'92.27'
p2043
S'88.92'
p2044
S'88.93'
p2045
S'32991700'
p2046
S'85.99'
p2047
tp2048
sS'2006-04-27'
p2049
(S'67.73'
p2050
S'69.86'
p2051
S'67.35'
p2052
S'69.36'
p2053
S'30212400'
p2054
S'67.06'
p2055
tp2056
sS'2008-12-03'
p2057
(S'89.40'
p2058
S'96.23'
p2059
S'88.80'
p2060
S'95.90'
p2061
S'47810000'
p2062
S'92.73'
p2063
tp2064
sS'2008-12-02'
p2065
(S'90.03'
p2066
S'92.65'
p2067
S'86.50'
p2068
S'92.47'
p2069
S'41025800'
p2070
S'89.41'
p2071
tp2072
sS'2005-03-30'
p2073
(S'42.07'
p2074
S'42.80'
p2075
S'41.82'
p2076
S'42.80'
p2077
S'14105700'
p2078
S'41.38'
p2079
tp2080
sS'2006-04-28'
p2081
(S'69.38'
p2082
S'71.30'
p2083
S'69.20'
p2084
S'70.39'
p2085
S'27144200'
p2086
S'68.06'
p2087
tp2088
sS'2008-12-09'
p2089
(S'98.04'
p2090
S'103.60'
p2091
S'97.21'
p2092
S'100.06'
p2093
S'42982000'
p2094
S'96.75'
p2095
tp2096
sS'2008-12-08'
p2097
(S'97.28'
p2098
S'100.80'
p2099
S'95.80'
p2100
S'99.72'
p2101
S'42326500'
p2102
S'96.42'
p2103
tp2104
sS'2005-09-16'
p2105
(S'50.23'
p2106
S'51.21'
p2107
S'49.95'
p2108
S'51.21'
p2109
S'21107300'
p2110
S'49.52'
p2111
tp2112
sS'2005-09-15'
p2113
(S'50.00'
p2114
S'50.18'
p2115
S'49.33'
p2116
S'49.87'
p2117
S'14827000'
p2118
S'48.22'
p2119
tp2120
sS'2005-09-14'
p2121
(S'51.06'
p2122
S'51.19'
p2123
S'49.46'
p2124
S'49.61'
p2125
S'16943800'
p2126
S'47.97'
p2127
tp2128
sS'2005-09-13'
p2129
(S'51.02'
p2130
S'51.29'
p2131
S'50.32'
p2132
S'50.82'
p2133
S'17603000'
p2134
S'49.14'
p2135
tp2136
sS'2005-09-12'
p2137
(S'51.10'
p2138
S'51.63'
p2139
S'50.58'
p2140
S'51.40'
p2141
S'16171300'
p2142
S'49.70'
p2143
tp2144
sS'2006-11-30'
p2145
(S'92.21'
p2146
S'92.68'
p2147
S'91.06'
p2148
S'91.66'
p2149
S'31088800'
p2150
S'88.63'
p2151
tp2152
sS'2004-09-24'
p2153
(S'37.45'
p2154
S'38.00'
p2155
S'37.15'
p2156
S'37.29'
p2157
S'13196000'
p2158
S'18.03'
p2159
tp2160
sS'2005-09-19'
p2161
(S'51.05'
p2162
S'52.89'
p2163
S'51.05'
p2164
S'52.64'
p2165
S'27990400'
p2166
S'50.90'
p2167
tp2168
sS'2006-02-10'
p2169
(S'65.18'
p2170
S'67.67'
p2171
S'62.90'
p2172
S'67.31'
p2173
S'62874200'
p2174
S'65.08'
p2175
tp2176
sS'2006-02-13'
p2177
(S'66.63'
p2178
S'66.75'
p2179
S'64.64'
p2180
S'64.71'
p2181
S'31553500'
p2182
S'62.57'
p2183
tp2184
sS'2006-02-15'
p2185
(S'67.16'
p2186
S'69.62'
p2187
S'66.75'
p2188
S'69.22'
p2189
S'41420400'
p2190
S'66.93'
p2191
tp2192
sS'2006-02-14'
p2193
(S'65.10'
p2194
S'68.10'
p2195
S'65.00'
p2196
S'67.64'
p2197
S'41462100'
p2198
S'65.40'
p2199
tp2200
sS'2006-02-17'
p2201
(S'70.30'
p2202
S'70.89'
p2203
S'69.61'
p2204
S'70.29'
p2205
S'20571400'
p2206
S'67.96'
p2207
tp2208
sS'2006-02-16'
p2209
(S'69.91'
p2210
S'71.01'
p2211
S'69.48'
p2212
S'70.57'
p2213
S'33863400'
p2214
S'68.23'
p2215
tp2216
sS'2004-09-28'
p2217
(S'37.46'
p2218
S'38.29'
p2219
S'37.45'
p2220
S'38.04'
p2221
S'12613800'
p2222
S'18.39'
p2223
tp2224
sS'2004-12-10'
p2225
(S'65.03'
p2226
S'66.05'
p2227
S'64.70'
p2228
S'65.15'
p2229
S'27706200'
p2230
S'31.50'
p2231
tp2232
sS'2008-10-14'
p2233
(S'116.26'
p2234
S'116.40'
p2235
S'103.14'
p2236
S'104.08'
p2237
S'70749800'
p2238
S'100.64'
p2239
tp2240
sS'2008-10-15'
p2241
(S'103.84'
p2242
S'107.00'
p2243
S'97.89'
p2244
S'97.95'
p2245
S'56577700'
p2246
S'94.71'
p2247
tp2248
sS'2008-10-16'
p2249
(S'99.77'
p2250
S'103.43'
p2251
S'91.74'
p2252
S'101.89'
p2253
S'70732900'
p2254
S'98.52'
p2255
tp2256
sS'2009-06-24'
p2257
(S'135.42'
p2258
S'137.50'
p2259
S'134.86'
p2260
S'136.22'
p2261
S'17340200'
p2262
S'131.71'
p2263
tp2264
sS'2008-10-10'
p2265
(S'85.70'
p2266
S'100.00'
p2267
S'85.00'
p2268
S'96.80'
p2269
S'79260700'
p2270
S'93.60'
p2271
tp2272
sS'2008-06-09'
p2273
(S'184.79'
p2274
S'184.94'
p2275
S'175.75'
p2276
S'181.61'
p2277
S'67442600'
p2278
S'175.60'
p2279
tp2280
sS'2006-10-26'
p2281
(S'81.90'
p2282
S'82.60'
p2283
S'81.13'
p2284
S'82.19'
p2285
S'15455600'
p2286
S'79.47'
p2287
tp2288
sS'2008-10-13'
p2289
(S'104.55'
p2290
S'110.53'
p2291
S'101.02'
p2292
S'110.26'
p2293
S'54967000'
p2294
S'106.61'
p2295
tp2296
sS'2008-06-04'
p2297
(S'184.02'
p2298
S'187.09'
p2299
S'183.23'
p2300
S'185.19'
p2301
S'25963700'
p2302
S'179.06'
p2303
tp2304
sS'2008-06-05'
p2305
(S'186.34'
p2306
S'189.84'
p2307
S'185.70'
p2308
S'189.43'
p2309
S'26980200'
p2310
S'183.16'
p2311
tp2312
sS'2008-06-06'
p2313
(S'188.00'
p2314
S'189.95'
p2315
S'185.55'
p2316
S'185.64'
p2317
S'34438700'
p2318
S'179.50'
p2319
tp2320
sS'2006-09-18'
p2321
(S'73.80'
p2322
S'74.86'
p2323
S'73.30'
p2324
S'73.89'
p2325
S'25188500'
p2326
S'71.44'
p2327
tp2328
sS'2006-09-19'
p2329
(S'74.10'
p2330
S'74.36'
p2331
S'72.80'
p2332
S'73.77'
p2333
S'25358900'
p2334
S'71.33'
p2335
tp2336
sS'2008-06-02'
p2337
(S'188.60'
p2338
S'189.65'
p2339
S'184.53'
p2340
S'186.10'
p2341
S'24280000'
p2342
S'179.94'
p2343
tp2344
sS'2008-06-03'
p2345
(S'186.86'
p2346
S'188.20'
p2347
S'182.34'
p2348
S'185.37'
p2349
S'26804300'
p2350
S'179.24'
p2351
tp2352
sS'2005-09-29'
p2353
(S'51.23'
p2354
S'52.59'
p2355
S'50.81'
p2356
S'52.34'
p2357
S'22744500'
p2358
S'50.61'
p2359
tp2360
sS'2006-03-09'
p2361
(S'65.98'
p2362
S'66.47'
p2363
S'63.81'
p2364
S'63.93'
p2365
S'28546600'
p2366
S'61.81'
p2367
tp2368
sS'2006-03-08'
p2369
(S'66.29'
p2370
S'67.20'
p2371
S'65.35'
p2372
S'65.66'
p2373
S'23330400'
p2374
S'63.49'
p2375
tp2376
sS'2006-03-07'
p2377
(S'65.76'
p2378
S'66.90'
p2379
S'65.08'
p2380
S'66.31'
p2381
S'31174200'
p2382
S'64.12'
p2383
tp2384
sS'2006-03-06'
p2385
(S'67.69'
p2386
S'67.72'
p2387
S'64.94'
p2388
S'65.48'
p2389
S'32595200'
p2390
S'63.31'
p2391
tp2392
sS'2006-03-01'
p2393
(S'68.84'
p2394
S'69.49'
p2395
S'68.02'
p2396
S'69.10'
p2397
S'27279200'
p2398
S'66.81'
p2399
tp2400
sS'2006-03-03'
p2401
(S'69.40'
p2402
S'69.91'
p2403
S'67.53'
p2404
S'67.72'
p2405
S'26345300'
p2406
S'65.48'
p2407
tp2408
sS'2006-03-02'
p2409
(S'68.99'
p2410
S'69.99'
p2411
S'68.67'
p2412
S'69.61'
p2413
S'22331200'
p2414
S'67.31'
p2415
tp2416
sS'2005-03-02'
p2417
(S'44.25'
p2418
S'44.89'
p2419
S'44.08'
p2420
S'44.12'
p2421
S'16362900'
p2422
S'42.66'
p2423
tp2424
sS'2005-03-03'
p2425
(S'44.37'
p2426
S'44.41'
p2427
S'41.22'
p2428
S'41.79'
p2429
S'50416200'
p2430
S'40.41'
p2431
tp2432
sS'2005-03-01'
p2433
(S'44.99'
p2434
S'45.11'
p2435
S'44.16'
p2436
S'44.50'
p2437
S'16721000'
p2438
S'43.03'
p2439
tp2440
sS'2006-06-19'
p2441
(S'57.83'
p2442
S'58.18'
p2443
S'57.00'
p2444
S'57.20'
p2445
S'25163400'
p2446
S'55.31'
p2447
tp2448
sS'2005-09-26'
p2449
(S'54.03'
p2450
S'54.56'
p2451
S'53.32'
p2452
S'53.84'
p2453
S'19520100'
p2454
S'52.06'
p2455
tp2456
sS'2005-03-04'
p2457
(S'42.76'
p2458
S'43.01'
p2459
S'41.85'
p2460
S'42.81'
p2461
S'27022100'
p2462
S'41.39'
p2463
tp2464
sS'2006-06-15'
p2465
(S'57.30'
p2466
S'59.74'
p2467
S'56.75'
p2468
S'59.38'
p2469
S'42513700'
p2470
S'57.41'
p2471
tp2472
sS'2006-06-14'
p2473
(S'58.28'
p2474
S'58.78'
p2475
S'56.69'
p2476
S'57.61'
p2477
S'31362000'
p2478
S'55.70'
p2479
tp2480
sS'2005-03-08'
p2481
(S'41.90'
p2482
S'42.16'
p2483
S'40.10'
p2484
S'40.53'
p2485
S'36480400'
p2486
S'39.19'
p2487
tp2488
sS'2006-06-16'
p2489
(S'58.96'
p2490
S'59.19'
p2491
S'57.52'
p2492
S'57.56'
p2493
S'29932200'
p2494
S'55.66'
p2495
tp2496
sS'2005-01-04'
p2497
(S'63.79'
p2498
S'65.47'
p2499
S'62.97'
p2500
S'63.94'
p2501
S'39171800'
p2502
S'30.91'
p2503
tp2504
sS'2005-01-05'
p2505
(S'64.46'
p2506
S'65.25'
p2507
S'64.05'
p2508
S'64.50'
p2509
S'24301200'
p2510
S'31.18'
p2511
tp2512
sS'2006-06-13'
p2513
(S'57.61'
p2514
S'59.10'
p2515
S'57.36'
p2516
S'58.33'
p2517
S'38594400'
p2518
S'56.40'
p2519
tp2520
sS'2006-06-12'
p2521
(S'59.40'
p2522
S'59.73'
p2523
S'56.96'
p2524
S'57.00'
p2525
S'25635200'
p2526
S'55.11'
p2527
tp2528
sS'2005-11-02'
p2529
(S'57.72'
p2530
S'60.00'
p2531
S'57.60'
p2532
S'59.95'
p2533
S'30609300'
p2534
S'57.97'
p2535
tp2536
sS'2004-11-08'
p2537
(S'54.27'
p2538
S'55.45'
p2539
S'53.86'
p2540
S'54.38'
p2541
S'18818600'
p2542
S'26.29'
p2543
tp2544
sS'2008-05-12'
p2545
(S'185.21'
p2546
S'188.87'
p2547
S'182.85'
p2548
S'188.16'
p2549
S'29234400'
p2550
S'181.93'
p2551
tp2552
sS'2008-05-13'
p2553
(S'188.61'
p2554
S'191.45'
p2555
S'187.86'
p2556
S'189.96'
p2557
S'29401300'
p2558
S'183.67'
p2559
tp2560
sS'2008-03-31'
p2561
(S'143.27'
p2562
S'145.71'
p2563
S'142.52'
p2564
S'143.50'
p2565
S'27430900'
p2566
S'138.75'
p2567
tp2568
sS'2008-05-16'
p2569
(S'190.11'
p2570
S'190.30'
p2571
S'187.00'
p2572
S'187.62'
p2573
S'27348900'
p2574
S'181.41'
p2575
tp2576
sS'2005-09-28'
p2577
(S'53.07'
p2578
S'53.11'
p2579
S'50.59'
p2580
S'51.08'
p2581
S'40198000'
p2582
S'49.39'
p2583
tp2584
sS'2008-05-14'
p2585
(S'191.23'
p2586
S'192.24'
p2587
S'185.57'
p2588
S'186.26'
p2589
S'32743700'
p2590
S'180.10'
p2591
tp2592
sS'2008-05-15'
p2593
(S'186.81'
p2594
S'189.90'
p2595
S'184.20'
p2596
S'189.73'
p2597
S'31186000'
p2598
S'183.45'
p2599
tp2600
sS'2007-07-31'
p2601
(S'142.97'
p2602
S'143.48'
p2603
S'131.52'
p2604
S'131.76'
p2605
S'62942600'
p2606
S'127.40'
p2607
tp2608
sS'2007-07-30'
p2609
(S'144.33'
p2610
S'145.45'
p2611
S'139.57'
p2612
S'141.43'
p2613
S'39535300'
p2614
S'136.75'
p2615
tp2616
sS'2005-02-14'
p2617
(S'82.73'
p2618
S'84.79'
p2619
S'82.05'
p2620
S'84.63'
p2621
S'45409400'
p2622
S'40.91'
p2623
tp2624
sS'2008-05-19'
p2625
(S'187.86'
p2626
S'188.69'
p2627
S'181.30'
p2628
S'183.60'
p2629
S'33779300'
p2630
S'177.52'
p2631
tp2632
sS'2005-09-27'
p2633
(S'53.92'
p2634
S'54.24'
p2635
S'53.43'
p2636
S'53.44'
p2637
S'12203700'
p2638
S'51.67'
p2639
tp2640
sS'2005-02-10'
p2641
(S'78.72'
p2642
S'79.28'
p2643
S'76.66'
p2644
S'78.36'
p2645
S'39036400'
p2646
S'37.88'
p2647
tp2648
sS'2005-02-11'
p2649
(S'79.86'
p2650
S'81.76'
p2651
S'78.94'
p2652
S'81.21'
p2653
S'42894800'
p2654
S'39.26'
p2655
tp2656
sS'2006-05-18'
p2657
(S'65.68'
p2658
S'66.26'
p2659
S'63.12'
p2660
S'63.18'
p2661
S'23515800'
p2662
S'61.09'
p2663
tp2664
sS'2006-11-06'
p2665
(S'78.95'
p2666
S'80.06'
p2667
S'78.43'
p2668
S'79.71'
p2669
S'15520600'
p2670
S'77.07'
p2671
tp2672
sS'2004-12-20'
p2673
(S'65.47'
p2674
S'66.00'
p2675
S'61.76'
p2676
S'62.72'
p2677
S'41718800'
p2678
S'30.32'
p2679
tp2680
sS'2007-01-25'
p2681
(S'87.11'
p2682
S'88.50'
p2683
S'86.03'
p2684
S'86.25'
p2685
S'32356200'
p2686
S'83.40'
p2687
tp2688
sS'2006-05-10'
p2689
(S'71.29'
p2690
S'71.33'
p2691
S'69.61'
p2692
S'70.60'
p2693
S'16424600'
p2694
S'68.26'
p2695
tp2696
sS'2006-05-11'
p2697
(S'70.79'
p2698
S'70.84'
p2699
S'67.55'
p2700
S'68.15'
p2701
S'29024600'
p2702
S'65.89'
p2703
tp2704
sS'2006-05-12'
p2705
(S'67.85'
p2706
S'68.69'
p2707
S'66.86'
p2708
S'67.70'
p2709
S'22920500'
p2710
S'65.46'
p2711
tp2712
sS'2006-05-15'
p2713
(S'67.37'
p2714
S'68.38'
p2715
S'67.12'
p2716
S'67.79'
p2717
S'18899200'
p2718
S'65.55'
p2719
tp2720
sS'2006-05-16'
p2721
(S'68.10'
p2722
S'68.25'
p2723
S'64.75'
p2724
S'64.98'
p2725
S'33455000'
p2726
S'62.83'
p2727
tp2728
sS'2006-05-17'
p2729
(S'64.71'
p2730
S'65.70'
p2731
S'64.07'
p2732
S'65.26'
p2733
S'26935500'
p2734
S'63.10'
p2735
tp2736
sS'2007-10-31'
p2737
(S'187.63'
p2738
S'190.12'
p2739
S'184.95'
p2740
S'189.95'
p2741
S'29761100'
p2742
S'183.66'
p2743
tp2744
sS'2007-10-30'
p2745
(S'186.18'
p2746
S'189.37'
p2747
S'184.73'
p2748
S'187.00'
p2749
S'33550500'
p2750
S'180.81'
p2751
tp2752
sS'2006-04-24'
p2753
(S'66.85'
p2754
S'66.92'
p2755
S'65.50'
p2756
S'65.75'
p2757
S'25251000'
p2758
S'63.57'
p2759
tp2760
sS'2005-07-07'
p2761
(S'36.81'
p2762
S'37.76'
p2763
S'36.80'
p2764
S'37.63'
p2765
S'13704400'
p2766
S'36.38'
p2767
tp2768
sS'2006-11-02'
p2769
(S'78.92'
p2770
S'79.32'
p2771
S'78.50'
p2772
S'78.98'
p2773
S'16624400'
p2774
S'76.37'
p2775
tp2776
sS'2006-04-25'
p2777
(S'65.96'
p2778
S'66.59'
p2779
S'65.56'
p2780
S'66.17'
p2781
S'18895100'
p2782
S'63.98'
p2783
tp2784
sS'2006-11-03'
p2785
(S'79.36'
p2786
S'79.53'
p2787
S'77.79'
p2788
S'78.29'
p2789
S'15424600'
p2790
S'75.70'
p2791
tp2792
sS'2005-12-27'
p2793
(S'74.00'
p2794
S'75.18'
p2795
S'73.95'
p2796
S'74.23'
p2797
S'21092500'
p2798
S'71.77'
p2799
tp2800
sS'2008-07-29'
p2801
(S'155.41'
p2802
S'159.45'
p2803
S'153.65'
p2804
S'157.08'
p2805
S'24431100'
p2806
S'151.88'
p2807
tp2808
sS'2008-07-28'
p2809
(S'162.34'
p2810
S'162.47'
p2811
S'154.02'
p2812
S'154.40'
p2813
S'27882600'
p2814
S'149.29'
p2815
tp2816
sS'2005-12-20'
p2817
(S'71.63'
p2818
S'72.38'
p2819
S'71.12'
p2820
S'72.11'
p2821
S'17111000'
p2822
S'69.72'
p2823
tp2824
sS'2005-12-21'
p2825
(S'72.60'
p2826
S'73.61'
p2827
S'72.54'
p2828
S'73.50'
p2829
S'16990600'
p2830
S'71.07'
p2831
tp2832
sS'2008-07-25'
p2833
(S'160.40'
p2834
S'163.00'
p2835
S'158.65'
p2836
S'162.12'
p2837
S'22629900'
p2838
S'156.76'
p2839
tp2840
sS'2008-07-24'
p2841
(S'164.32'
p2842
S'165.26'
p2843
S'158.45'
p2844
S'159.03'
p2845
S'29986400'
p2846
S'153.77'
p2847
tp2848
sS'2007-01-23'
p2849
(S'85.73'
p2850
S'87.51'
p2851
S'85.51'
p2852
S'85.70'
p2853
S'43122300'
p2854
S'82.86'
p2855
tp2856
sS'2008-07-21'
p2857
(S'166.90'
p2858
S'167.50'
p2859
S'161.12'
p2860
S'166.29'
p2861
S'48588200'
p2862
S'160.79'
p2863
tp2864
sS'2008-07-23'
p2865
(S'164.99'
p2866
S'168.37'
p2867
S'161.56'
p2868
S'166.26'
p2869
S'37920300'
p2870
S'160.76'
p2871
tp2872
sS'2008-07-22'
p2873
(S'149.00'
p2874
S'162.76'
p2875
S'146.53'
p2876
S'162.02'
p2877
S'67128300'
p2878
S'156.66'
p2879
tp2880
sS'2008-03-27'
p2881
(S'144.95'
p2882
S'145.31'
p2883
S'139.99'
p2884
S'140.25'
p2885
S'35708200'
p2886
S'135.61'
p2887
tp2888
sS'2005-05-02'
p2889
(S'36.21'
p2890
S'36.65'
p2891
S'36.02'
p2892
S'36.43'
p2893
S'16640000'
p2894
S'35.22'
p2895
tp2896
sS'2008-05-06'
p2897
(S'184.66'
p2898
S'187.12'
p2899
S'182.18'
p2900
S'186.66'
p2901
S'32816800'
p2902
S'180.48'
p2903
tp2904
sS'2006-11-07'
p2905
(S'80.45'
p2906
S'81.00'
p2907
S'80.13'
p2908
S'80.51'
p2909
S'18783300'
p2910
S'77.85'
p2911
tp2912
sS'2005-08-30'
p2913
(S'45.99'
p2914
S'46.79'
p2915
S'45.92'
p2916
S'46.57'
p2917
S'18527200'
p2918
S'45.03'
p2919
tp2920
sS'2005-05-12'
p2921
(S'35.42'
p2922
S'35.59'
p2923
S'34.00'
p2924
S'34.13'
p2925
S'34651500'
p2926
S'33.00'
p2927
tp2928
sS'2005-08-31'
p2929
(S'46.86'
p2930
S'47.03'
p2931
S'46.27'
p2932
S'46.89'
p2933
S'14391300'
p2934
S'45.34'
p2935
tp2936
sS'2009-03-20'
p2937
(S'102.09'
p2938
S'103.11'
p2939
S'100.57'
p2940
S'101.59'
p2941
S'24842400'
p2942
S'98.23'
p2943
tp2944
sS'2009-03-23'
p2945
(S'102.71'
p2946
S'108.16'
p2947
S'101.75'
p2948
S'107.66'
p2949
S'23799900'
p2950
S'104.10'
p2951
tp2952
sS'2009-03-24'
p2953
(S'106.36'
p2954
S'109.44'
p2955
S'105.39'
p2956
S'106.50'
p2957
S'22879000'
p2958
S'102.98'
p2959
tp2960
sS'2009-03-25'
p2961
(S'107.58'
p2962
S'108.36'
p2963
S'103.86'
p2964
S'106.49'
p2965
S'23093500'
p2966
S'102.97'
p2967
tp2968
sS'2009-03-26'
p2969
(S'107.83'
p2970
S'109.98'
p2971
S'107.58'
p2972
S'109.87'
p2973
S'22009000'
p2974
S'106.23'
p2975
tp2976
sS'2009-03-27'
p2977
(S'108.23'
p2978
S'108.53'
p2979
S'106.40'
p2980
S'106.85'
p2981
S'17602600'
p2982
S'103.31'
p2983
tp2984
sS'2004-09-15'
p2985
(S'35.36'
p2986
S'35.48'
p2987
S'34.80'
p2988
S'35.20'
p2989
S'8309600'
p2990
S'17.02'
p2991
tp2992
sS'2005-04-05'
p2993
(S'41.22'
p2994
S'42.24'
p2995
S'41.09'
p2996
S'41.89'
p2997
S'19865700'
p2998
S'40.50'
p2999
tp3000
sS'2007-06-25'
p3001
(S'124.19'
p3002
S'125.09'
p3003
S'121.06'
p3004
S'122.34'
p3005
S'34478700'
p3006
S'118.29'
p3007
tp3008
sS'2005-02-07'
p3009
(S'78.93'
p3010
S'79.35'
p3011
S'77.50'
p3012
S'78.94'
p3013
S'18730600'
p3014
S'38.16'
p3015
tp3016
sS'2007-07-09'
p3017
(S'132.38'
p3018
S'132.90'
p3019
S'129.18'
p3020
S'130.33'
p3021
S'35565000'
p3022
S'126.02'
p3023
tp3024
sS'2006-10-18'
p3025
(S'74.75'
p3026
S'75.37'
p3027
S'73.91'
p3028
S'74.53'
p3029
S'40496700'
p3030
S'72.06'
p3031
tp3032
sS'2006-10-19'
p3033
(S'79.26'
p3034
S'79.95'
p3035
S'78.16'
p3036
S'78.99'
p3037
S'54034900'
p3038
S'76.38'
p3039
tp3040
sS'2005-09-22'
p3041
(S'51.88'
p3042
S'52.47'
p3043
S'51.32'
p3044
S'51.90'
p3045
S'16561700'
p3046
S'50.18'
p3047
tp3048
sS'2006-10-12'
p3049
(S'73.61'
p3050
S'75.39'
p3051
S'73.60'
p3052
S'75.26'
p3053
S'21173400'
p3054
S'72.77'
p3055
tp3056
sS'2006-10-13'
p3057
(S'75.63'
p3058
S'76.88'
p3059
S'74.74'
p3060
S'75.02'
p3061
S'24435600'
p3062
S'72.54'
p3063
tp3064
sS'2006-10-10'
p3065
(S'74.54'
p3066
S'74.58'
p3067
S'73.08'
p3068
S'73.81'
p3069
S'18985300'
p3070
S'71.37'
p3071
tp3072
sS'2006-10-11'
p3073
(S'73.42'
p3074
S'73.98'
p3075
S'72.60'
p3076
S'73.23'
p3077
S'20423400'
p3078
S'70.81'
p3079
tp3080
sS'2006-10-16'
p3081
(S'75.19'
p3082
S'75.88'
p3083
S'74.79'
p3084
S'75.40'
p3085
S'18167600'
p3086
S'72.90'
p3087
tp3088
sS'2006-10-17'
p3089
(S'75.04'
p3090
S'75.27'
p3091
S'74.04'
p3092
S'74.29'
p3093
S'17175900'
p3094
S'71.83'
p3095
tp3096
sS'2007-02-08'
p3097
(S'85.43'
p3098
S'86.51'
p3099
S'85.41'
p3100
S'86.18'
p3101
S'24251100'
p3102
S'83.33'
p3103
tp3104
sS'2008-02-01'
p3105
(S'136.24'
p3106
S'136.59'
p3107
S'132.18'
p3108
S'133.75'
p3109
S'36098000'
p3110
S'129.32'
p3111
tp3112
sS'2008-02-04'
p3113
(S'134.21'
p3114
S'135.90'
p3115
S'131.42'
p3116
S'131.65'
p3117
S'32115500'
p3118
S'127.29'
p3119
tp3120
sS'2008-02-05'
p3121
(S'130.43'
p3122
S'134.00'
p3123
S'128.90'
p3124
S'129.36'
p3125
S'40751500'
p3126
S'125.08'
p3127
tp3128
sS'2008-02-06'
p3129
(S'130.83'
p3130
S'131.92'
p3131
S'121.77'
p3132
S'122.00'
p3133
S'56188300'
p3134
S'117.96'
p3135
tp3136
sS'2008-02-07'
p3137
(S'119.97'
p3138
S'124.78'
p3139
S'117.27'
p3140
S'121.24'
p3141
S'74404700'
p3142
S'117.23'
p3143
tp3144
sS'2008-02-08'
p3145
(S'122.08'
p3146
S'125.70'
p3147
S'121.60'
p3148
S'125.48'
p3149
S'48427600'
p3150
S'121.33'
p3151
tp3152
sS'2009-04-30'
p3153
(S'126.22'
p3154
S'127.00'
p3155
S'124.92'
p3156
S'125.83'
p3157
S'17803200'
p3158
S'121.67'
p3159
tp3160
sS'2005-02-02'
p3161
(S'77.95'
p3162
S'79.91'
p3163
S'77.69'
p3164
S'79.63'
p3165
S'36430800'
p3166
S'38.50'
p3167
tp3168
sS'2004-11-01'
p3169
(S'52.50'
p3170
S'53.26'
p3171
S'52.04'
p3172
S'52.45'
p3173
S'21501800'
p3174
S'25.36'
p3175
tp3176
sS'2004-08-26'
p3177
(S'33.04'
p3178
S'35.18'
p3179
S'32.74'
p3180
S'34.66'
p3181
S'34137800'
p3182
S'16.76'
p3183
tp3184
sS'2005-09-23'
p3185
(S'52.10'
p3186
S'53.50'
p3187
S'51.84'
p3188
S'53.20'
p3189
S'19944900'
p3190
S'51.44'
p3191
tp3192
sS'2004-09-21'
p3193
(S'37.75'
p3194
S'38.87'
p3195
S'37.46'
p3196
S'38.01'
p3197
S'13809000'
p3198
S'18.38'
p3199
tp3200
sS'2007-06-27'
p3201
(S'120.61'
p3202
S'122.04'
p3203
S'119.26'
p3204
S'121.89'
p3205
S'34810600'
p3206
S'117.86'
p3207
tp3208
sS'2006-12-27'
p3209
(S'78.15'
p3210
S'82.00'
p3211
S'76.77'
p3212
S'81.52'
p3213
S'69134100'
p3214
S'78.82'
p3215
tp3216
sS'2006-12-26'
p3217
(S'82.15'
p3218
S'82.57'
p3219
S'80.89'
p3220
S'81.51'
p3221
S'17524600'
p3222
S'78.81'
p3223
tp3224
sS'2006-12-21'
p3225
(S'84.70'
p3226
S'85.48'
p3227
S'82.20'
p3228
S'82.90'
p3229
S'32271400'
p3230
S'80.16'
p3231
tp3232
sS'2006-12-20'
p3233
(S'86.47'
p3234
S'86.67'
p3235
S'84.74'
p3236
S'84.76'
p3237
S'20274700'
p3238
S'81.96'
p3239
tp3240
sS'2007-11-09'
p3241
(S'171.15'
p3242
S'175.12'
p3243
S'165.21'
p3244
S'165.37'
p3245
S'54458700'
p3246
S'159.90'
p3247
tp3248
sS'2007-11-08'
p3249
(S'186.67'
p3250
S'186.90'
p3251
S'167.77'
p3252
S'175.47'
p3253
S'67458500'
p3254
S'169.66'
p3255
tp3256
sS'2007-11-07'
p3257
(S'190.61'
p3258
S'192.68'
p3259
S'186.13'
p3260
S'186.30'
p3261
S'35473400'
p3262
S'180.13'
p3263
tp3264
sS'2007-11-06'
p3265
(S'187.05'
p3266
S'192.00'
p3267
S'185.27'
p3268
S'191.79'
p3269
S'34097400'
p3270
S'185.44'
p3271
tp3272
sS'2007-11-05'
p3273
(S'185.29'
p3274
S'188.96'
p3275
S'184.24'
p3276
S'186.18'
p3277
S'28720600'
p3278
S'180.02'
p3279
tp3280
sS'2006-05-08'
p3281
(S'72.99'
p3282
S'73.80'
p3283
S'71.72'
p3284
S'71.89'
p3285
S'21244700'
p3286
S'69.51'
p3287
tp3288
sS'2006-12-29'
p3289
(S'83.95'
p3290
S'85.40'
p3291
S'83.36'
p3292
S'84.84'
p3293
S'38443900'
p3294
S'82.03'
p3295
tp3296
sS'2007-11-02'
p3297
(S'189.21'
p3298
S'189.44'
p3299
S'183.49'
p3300
S'187.87'
p3301
S'35789800'
p3302
S'181.65'
p3303
tp3304
sS'2007-11-01'
p3305
(S'188.60'
p3306
S'190.10'
p3307
S'180.00'
p3308
S'187.44'
p3309
S'28751300'
p3310
S'181.24'
p3311
tp3312
sS'2004-10-05'
p3313
(S'38.56'
p3314
S'39.67'
p3315
S'38.40'
p3316
S'39.37'
p3317
S'14505800'
p3318
S'19.03'
p3319
tp3320
sS'2008-04-28'
p3321
(S'169.75'
p3322
S'173.75'
p3323
S'169.13'
p3324
S'172.24'
p3325
S'28114800'
p3326
S'166.54'
p3327
tp3328
sS'2008-04-29'
p3329
(S'171.11'
p3330
S'175.66'
p3331
S'170.25'
p3332
S'175.05'
p3333
S'32981300'
p3334
S'169.26'
p3335
tp3336
sS'2004-09-03'
p3337
(S'35.01'
p3338
S'35.92'
p3339
S'35.01'
p3340
S'35.23'
p3341
S'10481000'
p3342
S'17.03'
p3343
tp3344
sS'2004-09-02'
p3345
(S'35.50'
p3346
S'35.81'
p3347
S'34.83'
p3348
S'35.66'
p3349
S'14511600'
p3350
S'17.24'
p3351
tp3352
sS'2004-09-07'
p3353
(S'35.40'
p3354
S'36.19'
p3355
S'35.23'
p3356
S'35.76'
p3357
S'10784200'
p3358
S'17.29'
p3359
tp3360
sS'2005-06-13'
p3361
(S'35.89'
p3362
S'36.61'
p3363
S'35.82'
p3364
S'35.90'
p3365
S'15563300'
p3366
S'34.71'
p3367
tp3368
sS'2004-09-09'
p3369
(S'36.10'
p3370
S'36.30'
p3371
S'35.28'
p3372
S'35.70'
p3373
S'16476400'
p3374
S'17.26'
p3375
tp3376
sS'2008-04-21'
p3377
(S'162.21'
p3378
S'168.50'
p3379
S'161.76'
p3380
S'168.16'
p3381
S'37112600'
p3382
S'162.60'
p3383
tp3384
sS'2008-04-22'
p3385
(S'167.40'
p3386
S'168.00'
p3387
S'158.09'
p3388
S'160.20'
p3389
S'51413300'
p3390
S'154.90'
p3391
tp3392
sS'2008-04-23'
p3393
(S'164.05'
p3394
S'164.84'
p3395
S'161.08'
p3396
S'162.89'
p3397
S'53721100'
p3398
S'157.50'
p3399
tp3400
sS'2008-04-24'
p3401
(S'165.34'
p3402
S'169.98'
p3403
S'159.19'
p3404
S'168.94'
p3405
S'60573800'
p3406
S'163.35'
p3407
tp3408
sS'2008-04-25'
p3409
(S'170.70'
p3410
S'171.10'
p3411
S'166.42'
p3412
S'169.73'
p3413
S'35445500'
p3414
S'164.11'
p3415
tp3416
sS'2004-12-01'
p3417
(S'67.79'
p3418
S'67.95'
p3419
S'66.27'
p3420
S'67.79'
p3421
S'28591200'
p3422
S'32.77'
p3423
tp3424
sS'2005-09-21'
p3425
(S'52.96'
p3426
S'53.05'
p3427
S'51.86'
p3428
S'52.11'
p3429
S'15526700'
p3430
S'50.39'
p3431
tp3432
sS'2005-05-05'
p3433
(S'37.25'
p3434
S'37.27'
p3435
S'36.47'
p3436
S'36.68'
p3437
S'13834500'
p3438
S'35.47'
p3439
tp3440
sS'2005-05-06'
p3441
(S'36.89'
p3442
S'37.33'
p3443
S'36.79'
p3444
S'37.24'
p3445
S'11651700'
p3446
S'36.01'
p3447
tp3448
sS'2006-05-04'
p3449
(S'71.22'
p3450
S'72.89'
p3451
S'70.46'
p3452
S'71.13'
p3453
S'30729300'
p3454
S'68.78'
p3455
tp3456
sS'2004-10-27'
p3457
(S'48.51'
p3458
S'50.62'
p3459
S'48.17'
p3460
S'50.30'
p3461
S'42624800'
p3462
S'24.32'
p3463
tp3464
sS'2008-01-29'
p3465
(S'131.15'
p3466
S'132.79'
p3467
S'129.05'
p3468
S'131.54'
p3469
S'39285100'
p3470
S'127.19'
p3471
tp3472
sS'2008-01-28'
p3473
(S'128.16'
p3474
S'133.20'
p3475
S'126.45'
p3476
S'130.01'
p3477
S'52673000'
p3478
S'125.71'
p3479
tp3480
sS'2006-05-03'
p3481
(S'71.83'
p3482
S'71.95'
p3483
S'70.18'
p3484
S'71.14'
p3485
S'24535400'
p3486
S'68.79'
p3487
tp3488
sS'2008-01-25'
p3489
(S'138.99'
p3490
S'139.09'
p3491
S'129.61'
p3492
S'130.01'
p3493
S'55526400'
p3494
S'125.71'
p3495
tp3496
sS'2008-01-24'
p3497
(S'139.99'
p3498
S'140.70'
p3499
S'132.01'
p3500
S'135.60'
p3501
S'71638100'
p3502
S'131.11'
p3503
tp3504
sS'2008-01-23'
p3505
(S'136.19'
p3506
S'140.00'
p3507
S'126.14'
p3508
S'139.07'
p3509
S'120463200'
p3510
S'134.47'
p3511
tp3512
sS'2008-01-22'
p3513
(S'148.06'
p3514
S'159.98'
p3515
S'146.00'
p3516
S'155.64'
p3517
S'86955500'
p3518
S'150.49'
p3519
tp3520
sS'2005-06-17'
p3521
(S'38.47'
p3522
S'38.54'
p3523
S'37.83'
p3524
S'38.31'
p3525
S'21290200'
p3526
S'37.04'
p3527
tp3528
sS'2006-02-22'
p3529
(S'69.00'
p3530
S'71.67'
p3531
S'68.00'
p3532
S'71.32'
p3533
S'34937100'
p3534
S'68.96'
p3535
tp3536
sS'2006-08-03'
p3537
(S'67.91'
p3538
S'70.00'
p3539
S'67.81'
p3540
S'69.59'
p3541
S'30037300'
p3542
S'67.29'
p3543
tp3544
sS'2006-05-01'
p3545
(S'70.77'
p3546
S'71.54'
p3547
S'69.16'
p3548
S'69.60'
p3549
S'26799300'
p3550
S'67.30'
p3551
tp3552
sS'2007-07-05'
p3553
(S'128.80'
p3554
S'132.97'
p3555
S'128.69'
p3556
S'132.75'
p3557
S'51894700'
p3558
S'128.36'
p3559
tp3560
sS'2006-08-04'
p3561
(S'67.05'
p3562
S'68.61'
p3563
S'64.96'
p3564
S'68.30'
p3565
S'66173800'
p3566
S'66.04'
p3567
tp3568
sS'2005-06-15'
p3569
(S'36.87'
p3570
S'37.30'
p3571
S'36.30'
p3572
S'37.13'
p3573
S'20119400'
p3574
S'35.90'
p3575
tp3576
sS'2005-05-03'
p3577
(S'36.40'
p3578
S'36.74'
p3579
S'36.03'
p3580
S'36.21'
p3581
S'17740700'
p3582
S'35.01'
p3583
tp3584
sS'2009-05-08'
p3585
(S'129.04'
p3586
S'131.23'
p3587
S'126.26'
p3588
S'129.19'
p3589
S'16713000'
p3590
S'124.91'
p3591
tp3592
sS'2009-07-01'
p3593
(S'143.50'
p3594
S'144.66'
p3595
S'142.52'
p3596
S'142.83'
p3597
S'14792100'
p3598
S'138.10'
p3599
tp3600
sS'2007-03-19'
p3601
(S'90.24'
p3602
S'91.55'
p3603
S'89.59'
p3604
S'91.13'
p3605
S'25462900'
p3606
S'88.11'
p3607
tp3608
sS'2007-01-29'
p3609
(S'86.30'
p3610
S'86.65'
p3611
S'85.53'
p3612
S'85.94'
p3613
S'32202300'
p3614
S'83.10'
p3615
tp3616
sS'2006-11-08'
p3617
(S'80.02'
p3618
S'82.69'
p3619
S'79.89'
p3620
S'82.45'
p3621
S'24675600'
p3622
S'79.72'
p3623
tp3624
sS'2006-11-09'
p3625
(S'82.90'
p3626
S'84.69'
p3627
S'82.12'
p3628
S'83.34'
p3629
S'32966200'
p3630
S'80.58'
p3631
tp3632
sS'2007-01-24'
p3633
(S'86.68'
p3634
S'87.15'
p3635
S'86.08'
p3636
S'86.70'
p3637
S'33136200'
p3638
S'83.83'
p3639
tp3640
sS'2009-05-01'
p3641
(S'125.80'
p3642
S'127.95'
p3643
S'125.80'
p3644
S'127.24'
p3645
S'14197000'
p3646
S'123.03'
p3647
tp3648
sS'2007-01-26'
p3649
(S'87.11'
p3650
S'87.37'
p3651
S'84.99'
p3652
S'85.38'
p3653
S'35245500'
p3654
S'82.55'
p3655
tp3656
sS'2006-08-07'
p3657
(S'67.72'
p3658
S'69.60'
p3659
S'66.31'
p3660
S'67.21'
p3661
S'44482600'
p3662
S'64.99'
p3663
tp3664
sS'2009-05-04'
p3665
(S'128.24'
p3666
S'132.25'
p3667
S'127.68'
p3668
S'132.07'
p3669
S'21762800'
p3670
S'127.70'
p3671
tp3672
sS'2009-05-05'
p3673
(S'131.75'
p3674
S'132.86'
p3675
S'131.12'
p3676
S'132.71'
p3677
S'14223400'
p3678
S'128.32'
p3679
tp3680
sS'2009-05-06'
p3681
(S'133.33'
p3682
S'133.50'
p3683
S'130.22'
p3684
S'132.50'
p3685
S'16912100'
p3686
S'128.12'
p3687
tp3688
sS'2009-05-07'
p3689
(S'132.33'
p3690
S'132.39'
p3691
S'127.90'
p3692
S'129.06'
p3693
S'18992000'
p3694
S'124.79'
p3695
tp3696
sS'2007-06-20'
p3697
(S'123.87'
p3698
S'124.66'
p3699
S'121.50'
p3700
S'121.55'
p3701
S'32054000'
p3702
S'117.53'
p3703
tp3704
sS'2005-04-15'
p3705
(S'36.62'
p3706
S'37.25'
p3707
S'35.28'
p3708
S'35.35'
p3709
S'61717400'
p3710
S'34.18'
p3711
tp3712
sS'2004-12-03'
p3713
(S'64.53'
p3714
S'65.00'
p3715
S'61.75'
p3716
S'62.68'
p3717
S'44244600'
p3718
S'30.30'
p3719
tp3720
sS'2007-05-15'
p3721
(S'109.57'
p3722
S'110.20'
p3723
S'106.48'
p3724
S'107.52'
p3725
S'34089800'
p3726
S'103.96'
p3727
tp3728
sS'2007-05-14'
p3729
(S'109.62'
p3730
S'110.00'
p3731
S'108.25'
p3732
S'109.36'
p3733
S'23283800'
p3734
S'105.74'
p3735
tp3736
sS'2007-05-17'
p3737
(S'107.15'
p3738
S'109.87'
p3739
S'107.15'
p3740
S'109.44'
p3741
S'26260400'
p3742
S'105.82'
p3743
tp3744
sS'2007-05-16'
p3745
(S'108.53'
p3746
S'108.83'
p3747
S'103.42'
p3748
S'107.34'
p3749
S'40241700'
p3750
S'103.79'
p3751
tp3752
sS'2007-05-11'
p3753
(S'107.74'
p3754
S'109.13'
p3755
S'106.78'
p3756
S'108.74'
p3757
S'23346300'
p3758
S'105.14'
p3759
tp3760
sS'2007-05-10'
p3761
(S'106.63'
p3762
S'108.84'
p3763
S'105.92'
p3764
S'107.34'
p3765
S'42759200'
p3766
S'103.79'
p3767
tp3768
sS'2009-06-18'
p3769
(S'136.11'
p3770
S'138.00'
p3771
S'135.59'
p3772
S'135.88'
p3773
S'15274300'
p3774
S'131.38'
p3775
tp3776
sS'2009-06-19'
p3777
(S'138.07'
p3778
S'139.50'
p3779
S'136.90'
p3780
S'139.48'
p3781
S'25780600'
p3782
S'134.86'
p3783
tp3784
sS'2009-06-16'
p3785
(S'136.66'
p3786
S'138.47'
p3787
S'136.10'
p3788
S'136.35'
p3789
S'18385900'
p3790
S'131.84'
p3791
tp3792
sS'2009-06-17'
p3793
(S'136.67'
p3794
S'137.45'
p3795
S'134.53'
p3796
S'135.58'
p3797
S'20407600'
p3798
S'131.09'
p3799
tp3800
sS'2009-06-15'
p3801
(S'136.01'
p3802
S'136.93'
p3803
S'134.89'
p3804
S'136.09'
p3805
S'19276800'
p3806
S'131.59'
p3807
tp3808
sS'2009-06-12'
p3809
(S'138.81'
p3810
S'139.10'
p3811
S'136.04'
p3812
S'136.97'
p3813
S'20110200'
p3814
S'132.44'
p3815
tp3816
sS'2007-05-18'
p3817
(S'110.23'
p3818
S'110.64'
p3819
S'109.77'
p3820
S'110.02'
p3821
S'22190900'
p3822
S'106.38'
p3823
tp3824
sS'2009-06-10'
p3825
(S'142.28'
p3826
S'142.35'
p3827
S'138.30'
p3828
S'140.25'
p3829
S'24593700'
p3830
S'135.61'
p3831
tp3832
sS'2009-06-11'
p3833
(S'139.55'
p3834
S'141.56'
p3835
S'138.55'
p3836
S'139.95'
p3837
S'18743700'
p3838
S'135.32'
p3839
tp3840
sS'2005-06-23'
p3841
(S'38.83'
p3842
S'39.78'
p3843
S'38.65'
p3844
S'38.89'
p3845
S'24080500'
p3846
S'37.60'
p3847
tp3848
sS'2008-09-26'
p3849
(S'124.91'
p3850
S'129.80'
p3851
S'123.00'
p3852
S'128.24'
p3853
S'40230400'
p3854
S'124.00'
p3855
tp3856
sS'2008-09-25'
p3857
(S'129.80'
p3858
S'134.79'
p3859
S'128.52'
p3860
S'131.93'
p3861
S'35930200'
p3862
S'127.56'
p3863
tp3864
sS'2008-09-24'
p3865
(S'127.27'
p3866
S'130.95'
p3867
S'125.15'
p3868
S'128.71'
p3869
S'37393400'
p3870
S'124.45'
p3871
tp3872
sS'2008-09-23'
p3873
(S'131.85'
p3874
S'135.80'
p3875
S'126.66'
p3876
S'126.84'
p3877
S'45727300'
p3878
S'122.64'
p3879
tp3880
sS'2008-09-22'
p3881
(S'139.94'
p3882
S'140.25'
p3883
S'130.66'
p3884
S'131.05'
p3885
S'30596900'
p3886
S'126.71'
p3887
tp3888
sS'2005-06-24'
p3889
(S'39.09'
p3890
S'39.12'
p3891
S'37.68'
p3892
S'37.76'
p3893
S'14668200'
p3894
S'36.51'
p3895
tp3896
sS'Date'
p3897
(S'Open'
p3898
S'High'
p3899
S'Low'
p3900
S'Close'
p3901
S'Volume'
p3902
S'Adj Close'
p3903
tp3904
sS'2005-06-27'
p3905
(S'36.84'
p3906
S'38.10'
p3907
S'36.68'
p3908
S'37.10'
p3909
S'21434700'
p3910
S'35.87'
p3911
tp3912
sS'2005-06-29'
p3913
(S'37.23'
p3914
S'37.29'
p3915
S'36.12'
p3916
S'36.37'
p3917
S'16012800'
p3918
S'35.17'
p3919
tp3920
sS'2005-06-28'
p3921
(S'37.49'
p3922
S'37.59'
p3923
S'37.17'
p3924
S'37.31'
p3925
S'12510700'
p3926
S'36.08'
p3927
tp3928
sS'2004-11-30'
p3929
(S'68.79'
p3930
S'68.79'
p3931
S'67.05'
p3932
S'67.05'
p3933
S'36732800'
p3934
S'32.42'
p3935
tp3936
sS'2008-09-29'
p3937
(S'119.62'
p3938
S'119.68'
p3939
S'100.59'
p3940
S'105.26'
p3941
S'93644900'
p3942
S'101.78'
p3943
tp3944
sS'2004-10-20'
p3945
(S'47.18'
p3946
S'47.60'
p3947
S'46.65'
p3948
S'47.47'
p3949
S'21611000'
p3950
S'22.95'
p3951
tp3952
sS'2005-10-24'
p3953
(S'55.25'
p3954
S'56.79'
p3955
S'55.09'
p3956
S'56.79'
p3957
S'21776900'
p3958
S'54.91'
p3959
tp3960
sS'2006-09-14'
p3961
(S'73.72'
p3962
S'74.67'
p3963
S'73.46'
p3964
S'74.17'
p3965
S'28633200'
p3966
S'71.72'
p3967
tp3968
sS'2005-10-26'
p3969
(S'56.28'
p3970
S'57.56'
p3971
S'55.92'
p3972
S'57.03'
p3973
S'22556900'
p3974
S'55.14'
p3975
tp3976
sS'2005-10-27'
p3977
(S'56.99'
p3978
S'57.01'
p3979
S'55.41'
p3980
S'55.41'
p3981
S'14697900'
p3982
S'53.58'
p3983
tp3984
sS'2005-10-20'
p3985
(S'54.47'
p3986
S'56.50'
p3987
S'54.35'
p3988
S'56.14'
p3989
S'48491500'
p3990
S'54.28'
p3991
tp3992
sS'2005-10-21'
p3993
(S'56.84'
p3994
S'56.98'
p3995
S'55.36'
p3996
S'55.66'
p3997
S'28454500'
p3998
S'53.82'
p3999
tp4000
sS'2009-06-26'
p4001
(S'139.79'
p4002
S'143.56'
p4003
S'139.74'
p4004
S'142.44'
p4005
S'15692300'
p4006
S'137.73'
p4007
tp4008
sS'2005-10-28'
p4009
(S'56.04'
p4010
S'56.43'
p4011
S'54.17'
p4012
S'54.47'
p4013
S'27492400'
p4014
S'52.67'
p4015
tp4016
sS'2009-06-25'
p4017
(S'135.75'
p4018
S'140.20'
p4019
S'135.21'
p4020
S'139.86'
p4021
S'21051700'
p4022
S'135.23'
p4023
tp4024
sS'2007-09-24'
p4025
(S'146.73'
p4026
S'149.85'
p4027
S'146.65'
p4028
S'148.28'
p4029
S'37577200'
p4030
S'143.37'
p4031
tp4032
sS'2007-09-25'
p4033
(S'146.84'
p4034
S'153.22'
p4035
S'146.82'
p4036
S'153.18'
p4037
S'42591100'
p4038
S'148.11'
p4039
tp4040
sS'2007-09-26'
p4041
(S'154.47'
p4042
S'155.00'
p4043
S'151.25'
p4044
S'152.77'
p4045
S'34831000'
p4046
S'147.71'
p4047
tp4048
sS'2008-10-17'
p4049
(S'99.60'
p4050
S'102.04'
p4051
S'85.89'
p4052
S'97.40'
p4053
S'62936700'
p4054
S'94.18'
p4055
tp4056
sS'2007-09-20'
p4057
(S'140.15'
p4058
S'141.79'
p4059
S'139.32'
p4060
S'140.31'
p4061
S'24708600'
p4062
S'135.67'
p4063
tp4064
sS'2007-09-21'
p4065
(S'141.14'
p4066
S'144.65'
p4067
S'140.31'
p4068
S'144.15'
p4069
S'40674300'
p4070
S'139.38'
p4071
tp4072
sS'2005-07-14'
p4073
(S'40.79'
p4074
S'42.01'
p4075
S'40.23'
p4076
S'40.75'
p4077
S'74859300'
p4078
S'39.40'
p4079
tp4080
sS'2007-04-23'
p4081
(S'91.59'
p4082
S'93.80'
p4083
S'91.42'
p4084
S'93.51'
p4085
S'27867500'
p4086
S'90.42'
p4087
tp4088
sS'2009-06-23'
p4089
(S'136.40'
p4090
S'136.95'
p4091
S'132.88'
p4092
S'134.01'
p4093
S'25233300'
p4094
S'129.58'
p4095
tp4096
sS'2007-02-01'
p4097
(S'86.23'
p4098
S'86.27'
p4099
S'84.74'
p4100
S'84.74'
p4101
S'23726500'
p4102
S'81.94'
p4103
tp4104
sS'2007-04-20'
p4105
(S'90.89'
p4106
S'91.18'
p4107
S'90.55'
p4108
S'90.97'
p4109
S'18670700'
p4110
S'87.96'
p4111
tp4112
sS'2007-09-28'
p4113
(S'153.44'
p4114
S'154.60'
p4115
S'152.75'
p4116
S'153.47'
p4117
S'21967900'
p4118
S'148.39'
p4119
tp4120
sS'2007-04-26'
p4121
(S'101.58'
p4122
S'102.50'
p4123
S'98.30'
p4124
S'98.84'
p4125
S'62063500'
p4126
S'95.57'
p4127
tp4128
sS'2007-04-25'
p4129
(S'94.23'
p4130
S'95.40'
p4131
S'93.80'
p4132
S'95.35'
p4133
S'42398000'
p4134
S'92.19'
p4135
tp4136
sS'2009-06-22'
p4137
(S'140.67'
p4138
S'141.56'
p4139
S'136.33'
p4140
S'137.37'
p4141
S'22675500'
p4142
S'132.82'
p4143
tp4144
sS'2005-11-30'
p4145
(S'68.43'
p4146
S'68.85'
p4147
S'67.52'
p4148
S'67.82'
p4149
S'21274100'
p4150
S'65.58'
p4151
tp4152
sS'2006-09-12'
p4153
(S'72.81'
p4154
S'73.45'
p4155
S'71.45'
p4156
S'72.63'
p4157
S'60167400'
p4158
S'70.23'
p4159
tp4160
sS'2008-07-11'
p4161
(S'175.47'
p4162
S'177.11'
p4163
S'171.00'
p4164
S'172.58'
p4165
S'33214700'
p4166
S'166.87'
p4167
tp4168
sS'2005-07-11'
p4169
(S'38.37'
p4170
S'38.65'
p4171
S'37.78'
p4172
S'38.10'
p4173
S'13885300'
p4174
S'36.84'
p4175
tp4176
sS'2006-09-13'
p4177
(S'72.85'
p4178
S'74.32'
p4179
S'72.30'
p4180
S'74.20'
p4181
S'40933500'
p4182
S'71.74'
p4183
tp4184
sS'2006-02-28'
p4185
(S'71.58'
p4186
S'72.40'
p4187
S'68.10'
p4188
S'68.49'
p4189
S'45249300'
p4190
S'66.22'
p4191
tp4192
sS'2004-10-28'
p4193
(S'49.98'
p4194
S'52.22'
p4195
S'49.50'
p4196
S'52.19'
p4197
S'30866600'
p4198
S'25.23'
p4199
tp4200
sS'2007-08-30'
p4201
(S'132.67'
p4202
S'138.25'
p4203
S'132.30'
p4204
S'136.25'
p4205
S'51270800'
p4206
S'131.74'
p4207
tp4208
sS'2007-08-31'
p4209
(S'139.49'
p4210
S'139.65'
p4211
S'137.41'
p4212
S'138.48'
p4213
S'31317400'
p4214
S'133.90'
p4215
tp4216
sS'2005-07-13'
p4217
(S'38.29'
p4218
S'38.50'
p4219
S'37.90'
p4220
S'38.35'
p4221
S'24458400'
p4222
S'37.08'
p4223
tp4224
sS'2004-11-26'
p4225
(S'65.35'
p4226
S'65.76'
p4227
S'64.34'
p4228
S'64.55'
p4229
S'19648000'
p4230
S'31.21'
p4231
tp4232
sS'2004-12-30'
p4233
(S'64.81'
p4234
S'65.03'
p4235
S'64.22'
p4236
S'64.80'
p4237
S'12333600'
p4238
S'31.33'
p4239
tp4240
sS'2006-08-18'
p4241
(S'67.71'
p4242
S'68.40'
p4243
S'67.26'
p4244
S'67.91'
p4245
S'19155500'
p4246
S'65.66'
p4247
tp4248
sS'2005-12-30'
p4249
(S'70.91'
p4250
S'72.43'
p4251
S'70.34'
p4252
S'71.89'
p4253
S'22295100'
p4254
S'69.51'
p4255
tp4256
sS'2004-09-14'
p4257
(S'35.24'
p4258
S'35.55'
p4259
S'34.78'
p4260
S'35.49'
p4261
S'9100800'
p4262
S'17.16'
p4263
tp4264
sS'2005-10-25'
p4265
(S'56.40'
p4266
S'56.85'
p4267
S'55.69'
p4268
S'56.10'
p4269
S'16611700'
p4270
S'54.24'
p4271
tp4272
sS'2006-02-23'
p4273
(S'71.79'
p4274
S'73.00'
p4275
S'71.43'
p4276
S'71.75'
p4277
S'30604200'
p4278
S'69.38'
p4279
tp4280
sS'2008-07-17'
p4281
(S'174.10'
p4282
S'174.98'
p4283
S'171.39'
p4284
S'171.81'
p4285
S'27054500'
p4286
S'166.12'
p4287
tp4288
sS'2004-09-29'
p4289
(S'37.93'
p4290
S'38.86'
p4291
S'37.82'
p4292
S'38.68'
p4293
S'9768200'
p4294
S'18.70'
p4295
tp4296
sS'2006-09-28'
p4297
(S'77.02'
p4298
S'77.48'
p4299
S'75.95'
p4300
S'77.01'
p4301
S'25843200'
p4302
S'74.46'
p4303
tp4304
sS'2005-08-16'
p4305
(S'47.39'
p4306
S'47.50'
p4307
S'46.21'
p4308
S'46.25'
p4309
S'19200800'
p4310
S'44.72'
p4311
tp4312
sS'2005-08-17'
p4313
(S'46.40'
p4314
S'47.44'
p4315
S'46.37'
p4316
S'47.15'
p4317
S'17847300'
p4318
S'45.59'
p4319
tp4320
sS'2005-08-10'
p4321
(S'44.00'
p4322
S'44.39'
p4323
S'43.31'
p4324
S'43.38'
p4325
S'12890900'
p4326
S'41.94'
p4327
tp4328
sS'2009-06-29'
p4329
(S'143.46'
p4330
S'143.95'
p4331
S'141.54'
p4332
S'141.97'
p4333
S'20272000'
p4334
S'137.27'
p4335
tp4336
sS'2005-11-18'
p4337
(S'65.31'
p4338
S'65.43'
p4339
S'64.37'
p4340
S'64.56'
p4341
S'18748700'
p4342
S'62.42'
p4343
tp4344
sS'2006-11-01'
p4345
(S'81.10'
p4346
S'81.38'
p4347
S'78.36'
p4348
S'79.16'
p4349
S'21828300'
p4350
S'76.54'
p4351
tp4352
sS'2006-08-31'
p4353
(S'67.28'
p4354
S'68.30'
p4355
S'66.66'
p4356
S'67.85'
p4357
S'20524900'
p4358
S'65.60'
p4359
tp4360
sS'2006-08-30'
p4361
(S'67.34'
p4362
S'67.82'
p4363
S'66.68'
p4364
S'66.96'
p4365
S'24290800'
p4366
S'64.74'
p4367
tp4368
sS'2006-01-03'
p4369
(S'72.38'
p4370
S'74.75'
p4371
S'72.25'
p4372
S'74.75'
p4373
S'28829800'
p4374
S'72.28'
p4375
tp4376
sS'2006-05-30'
p4377
(S'63.29'
p4378
S'63.30'
p4379
S'61.22'
p4380
S'61.22'
p4381
S'20121500'
p4382
S'59.19'
p4383
tp4384
sS'2006-01-06'
p4385
(S'75.25'
p4386
S'76.70'
p4387
S'74.55'
p4388
S'76.30'
p4389
S'25159200'
p4390
S'73.78'
p4391
tp4392
sS'2006-01-05'
p4393
(S'74.83'
p4394
S'74.90'
p4395
S'73.75'
p4396
S'74.38'
p4397
S'16050800'
p4398
S'71.92'
p4399
tp4400
sS'2006-01-04'
p4401
(S'75.13'
p4402
S'75.98'
p4403
S'74.50'
p4404
S'74.97'
p4405
S'22128700'
p4406
S'72.49'
p4407
tp4408
sS'2004-10-07'
p4409
(S'40.54'
p4410
S'40.93'
p4411
S'39.46'
p4412
S'39.62'
p4413
S'15219600'
p4414
S'19.15'
p4415
tp4416
sS'2004-10-06'
p4417
(S'39.50'
p4418
S'40.76'
p4419
S'39.47'
p4420
S'40.64'
p4421
S'15939400'
p4422
S'19.65'
p4423
tp4424
sS'2006-01-09'
p4425
(S'76.73'
p4426
S'77.20'
p4427
S'75.74'
p4428
S'76.05'
p4429
S'24108600'
p4430
S'73.53'
p4431
tp4432
sS'2004-10-04'
p4433
(S'39.18'
p4434
S'39.18'
p4435
S'38.75'
p4436
S'38.79'
p4437
S'20503000'
p4438
S'18.75'
p4439
tp4440
sS'2005-05-25'
p4441
(S'39.50'
p4442
S'39.95'
p4443
S'39.32'
p4444
S'39.78'
p4445
S'14143100'
p4446
S'38.46'
p4447
tp4448
sS'2004-10-01'
p4449
(S'39.12'
p4450
S'39.19'
p4451
S'38.58'
p4452
S'38.67'
p4453
S'16621600'
p4454
S'18.70'
p4455
tp4456
sS'2004-09-23'
p4457
(S'37.04'
p4458
S'37.50'
p4459
S'36.93'
p4460
S'37.27'
p4461
S'14193000'
p4462
S'18.02'
p4463
tp4464
sS'2004-12-23'
p4465
(S'63.75'
p4466
S'64.25'
p4467
S'63.60'
p4468
S'64.01'
p4469
S'8783200'
p4470
S'30.95'
p4471
tp4472
sS'2004-09-22'
p4473
(S'38.10'
p4474
S'38.14'
p4475
S'36.81'
p4476
S'36.92'
p4477
S'14346000'
p4478
S'17.85'
p4479
tp4480
sS'2004-11-18'
p4481
(S'54.30'
p4482
S'55.45'
p4483
S'54.29'
p4484
S'55.39'
p4485
S'16398200'
p4486
S'26.78'
p4487
tp4488
sS'2005-04-18'
p4489
(S'35.00'
p4490
S'36.30'
p4491
S'34.00'
p4492
S'35.62'
p4493
S'47399200'
p4494
S'34.44'
p4495
tp4496
sS'2005-05-31'
p4497
(S'40.66'
p4498
S'40.74'
p4499
S'39.58'
p4500
S'39.76'
p4501
S'14435900'
p4502
S'38.44'
p4503
tp4504
sS'2004-09-20'
p4505
(S'36.88'
p4506
S'37.98'
p4507
S'36.87'
p4508
S'37.71'
p4509
S'8750000'
p4510
S'18.23'
p4511
tp4512
sS'2005-11-08'
p4513
(S'59.95'
p4514
S'60.38'
p4515
S'59.10'
p4516
S'59.90'
p4517
S'16920200'
p4518
S'57.92'
p4519
tp4520
sS'2009-03-09'
p4521
(S'84.18'
p4522
S'87.60'
p4523
S'82.57'
p4524
S'83.11'
p4525
S'24939200'
p4526
S'80.36'
p4527
tp4528
sS'2006-07-31'
p4529
(S'66.83'
p4530
S'68.63'
p4531
S'66.28'
p4532
S'67.96'
p4533
S'31887200'
p4534
S'65.71'
p4535
tp4536
sS'2006-07-06'
p4537
(S'57.09'
p4538
S'57.40'
p4539
S'55.61'
p4540
S'55.77'
p4541
S'22614600'
p4542
S'53.92'
p4543
tp4544
sS'2007-12-31'
p4545
(S'199.50'
p4546
S'200.50'
p4547
S'197.75'
p4548
S'198.08'
p4549
S'19261900'
p4550
S'191.53'
p4551
tp4552
sS'2007-02-22'
p4553
(S'90.80'
p4554
S'90.81'
p4555
S'88.53'
p4556
S'89.51'
p4557
S'29936600'
p4558
S'86.55'
p4559
tp4560
sS'2005-04-19'
p4561
(S'36.60'
p4562
S'37.44'
p4563
S'35.87'
p4564
S'37.09'
p4565
S'38630100'
p4566
S'35.86'
p4567
tp4568
sS'2005-10-31'
p4569
(S'55.20'
p4570
S'57.98'
p4571
S'54.75'
p4572
S'57.59'
p4573
S'33601600'
p4574
S'55.68'
p4575
tp4576
sS'2005-03-09'
p4577
(S'39.64'
p4578
S'40.28'
p4579
S'38.83'
p4580
S'39.35'
p4581
S'47230900'
p4582
S'38.05'
p4583
tp4584
sS'2009-01-05'
p4585
(S'93.17'
p4586
S'96.18'
p4587
S'92.71'
p4588
S'94.58'
p4589
S'42200300'
p4590
S'91.45'
p4591
tp4592
sS'2009-01-06'
p4593
(S'95.95'
p4594
S'97.17'
p4595
S'92.39'
p4596
S'93.02'
p4597
S'46046800'
p4598
S'89.94'
p4599
tp4600
sS'2009-01-07'
p4601
(S'91.81'
p4602
S'92.50'
p4603
S'90.26'
p4604
S'91.01'
p4605
S'26894600'
p4606
S'88.00'
p4607
tp4608
sS'2009-01-02'
p4609
(S'85.88'
p4610
S'91.04'
p4611
S'85.16'
p4612
S'90.75'
p4613
S'26643400'
p4614
S'87.75'
p4615
tp4616
sS'2008-12-30'
p4617
(S'87.42'
p4618
S'88.05'
p4619
S'84.72'
p4620
S'86.29'
p4621
S'34557200'
p4622
S'83.43'
p4623
tp4624
sS'2008-12-31'
p4625
(S'85.97'
p4626
S'87.74'
p4627
S'85.34'
p4628
S'85.35'
p4629
S'21697900'
p4630
S'82.53'
p4631
tp4632
sS'2009-01-08'
p4633
(S'90.43'
p4634
S'93.15'
p4635
S'90.04'
p4636
S'92.70'
p4637
S'23912000'
p4638
S'89.63'
p4639
tp4640
sS'2009-01-09'
p4641
(S'93.21'
p4642
S'93.38'
p4643
S'90.14'
p4644
S'90.58'
p4645
S'19530200'
p4646
S'87.58'
p4647
tp4648
sS'2007-09-27'
p4649
(S'153.77'
p4650
S'154.52'
p4651
S'152.32'
p4652
S'154.50'
p4653
S'23507100'
p4654
S'149.39'
p4655
tp4656
sS'2007-03-13'
p4657
(S'89.41'
p4658
S'90.60'
p4659
S'88.40'
p4660
S'88.40'
p4661
S'30996100'
p4662
S'85.47'
p4663
tp4664
sS'2007-03-12'
p4665
(S'88.07'
p4666
S'89.99'
p4667
S'87.99'
p4668
S'89.87'
p4669
S'26050300'
p4670
S'86.90'
p4671
tp4672
sS'2006-02-24'
p4673
(S'72.14'
p4674
S'72.89'
p4675
S'71.20'
p4676
S'71.46'
p4677
S'19098000'
p4678
S'69.10'
p4679
tp4680
sS'2008-10-09'
p4681
(S'93.35'
p4682
S'95.80'
p4683
S'86.60'
p4684
S'88.74'
p4685
S'57763700'
p4686
S'85.80'
p4687
tp4688
sS'2008-10-08'
p4689
(S'85.91'
p4690
S'96.33'
p4691
S'85.68'
p4692
S'89.79'
p4693
S'78847900'
p4694
S'86.82'
p4695
tp4696
sS'2006-02-21'
p4697
(S'70.59'
p4698
S'70.80'
p4699
S'68.68'
p4700
S'69.08'
p4701
S'27843100'
p4702
S'66.79'
p4703
tp4704
sS'2007-11-30'
p4705
(S'187.34'
p4706
S'187.70'
p4707
S'179.70'
p4708
S'182.22'
p4709
S'42421500'
p4710
S'176.19'
p4711
tp4712
sS'2007-02-02'
p4713
(S'84.12'
p4714
S'85.25'
p4715
S'83.70'
p4716
S'84.75'
p4717
S'22197500'
p4718
S'81.95'
p4719
tp4720
sS'2008-10-03'
p4721
(S'104.00'
p4722
S'106.50'
p4723
S'94.65'
p4724
S'97.07'
p4725
S'81942800'
p4726
S'93.86'
p4727
tp4728
sS'2008-10-02'
p4729
(S'108.01'
p4730
S'108.79'
p4731
S'100.00'
p4732
S'100.10'
p4733
S'57477300'
p4734
S'96.79'
p4735
tp4736
sS'2008-10-01'
p4737
(S'111.92'
p4738
S'112.36'
p4739
S'107.39'
p4740
S'109.12'
p4741
S'46303000'
p4742
S'105.51'
p4743
tp4744
sS'2008-10-07'
p4745
(S'100.48'
p4746
S'101.50'
p4747
S'88.95'
p4748
S'89.16'
p4749
S'67099000'
p4750
S'86.21'
p4751
tp4752
sS'2008-10-06'
p4753
(S'91.96'
p4754
S'98.78'
p4755
S'87.54'
p4756
S'98.14'
p4757
S'75264900'
p4758
S'94.89'
p4759
tp4760
sS'2006-09-05'
p4761
(S'68.97'
p4762
S'71.50'
p4763
S'68.55'
p4764
S'71.48'
p4765
S'36159200'
p4766
S'69.11'
p4767
tp4768
sS'2005-03-07'
p4769
(S'42.80'
p4770
S'43.25'
p4771
S'42.35'
p4772
S'42.75'
p4773
S'16094000'
p4774
S'41.34'
p4775
tp4776
sS'2008-06-13'
p4777
(S'171.64'
p4778
S'174.16'
p4779
S'165.31'
p4780
S'172.37'
p4781
S'48069900'
p4782
S'166.67'
p4783
tp4784
sS'2008-06-12'
p4785
(S'181.49'
p4786
S'182.60'
p4787
S'171.20'
p4788
S'173.26'
p4789
S'46726200'
p4790
S'167.53'
p4791
tp4792
sS'2008-06-11'
p4793
(S'184.34'
p4794
S'186.00'
p4795
S'179.59'
p4796
S'180.81'
p4797
S'34341100'
p4798
S'174.83'
p4799
tp4800
sS'2008-06-10'
p4801
(S'180.51'
p4802
S'186.78'
p4803
S'179.02'
p4804
S'185.64'
p4805
S'40728600'
p4806
S'179.50'
p4807
tp4808
sS'2008-06-17'
p4809
(S'178.10'
p4810
S'181.99'
p4811
S'177.41'
p4812
S'181.43'
p4813
S'32130600'
p4814
S'175.43'
p4815
tp4816
sS'2008-06-16'
p4817
(S'171.30'
p4818
S'177.90'
p4819
S'169.07'
p4820
S'176.84'
p4821
S'37561800'
p4822
S'170.99'
p4823
tp4824
sS'2007-04-27'
p4825
(S'98.18'
p4826
S'99.95'
p4827
S'97.69'
p4828
S'99.92'
p4829
S'24978700'
p4830
S'96.61'
p4831
tp4832
sS'2008-06-19'
p4833
(S'178.55'
p4834
S'182.34'
p4835
S'176.80'
p4836
S'180.90'
p4837
S'28283900'
p4838
S'174.91'
p4839
tp4840
sS'2008-06-18'
p4841
(S'181.12'
p4842
S'182.20'
p4843
S'177.35'
p4844
S'178.75'
p4845
S'28981000'
p4846
S'172.83'
p4847
tp4848
sS'2005-08-23'
p4849
(S'45.85'
p4850
S'46.10'
p4851
S'45.32'
p4852
S'45.74'
p4853
S'10557300'
p4854
S'44.23'
p4855
tp4856
sS'2007-02-06'
p4857
(S'84.45'
p4858
S'84.47'
p4859
S'82.86'
p4860
S'84.15'
p4861
S'30871200'
p4862
S'81.37'
p4863
tp4864
sS'2009-02-23'
p4865
(S'91.65'
p4866
S'92.00'
p4867
S'86.51'
p4868
S'86.95'
p4869
S'28106500'
p4870
S'84.07'
p4871
tp4872
sS'2008-01-17'
p4873
(S'161.51'
p4874
S'165.36'
p4875
S'158.42'
p4876
S'160.89'
p4877
S'62780700'
p4878
S'155.57'
p4879
tp4880
sS'2008-01-14'
p4881
(S'177.52'
p4882
S'179.42'
p4883
S'175.17'
p4884
S'178.78'
p4885
S'39301800'
p4886
S'172.86'
p4887
tp4888
sS'2009-02-20'
p4889
(S'89.40'
p4890
S'92.40'
p4891
S'89.00'
p4892
S'91.20'
p4893
S'26797000'
p4894
S'88.18'
p4895
tp4896
sS'2009-02-27'
p4897
(S'87.93'
p4898
S'91.30'
p4899
S'87.67'
p4900
S'89.31'
p4901
S'25237800'
p4902
S'86.35'
p4903
tp4904
sS'2009-02-26'
p4905
(S'92.00'
p4906
S'92.92'
p4907
S'88.96'
p4908
S'89.19'
p4909
S'22495300'
p4910
S'86.24'
p4911
tp4912
sS'2009-02-25'
p4913
(S'89.86'
p4914
S'92.92'
p4915
S'89.25'
p4916
S'91.16'
p4917
S'29751900'
p4918
S'88.14'
p4919
tp4920
sS'2009-02-24'
p4921
(S'87.45'
p4922
S'90.89'
p4923
S'87.00'
p4924
S'90.25'
p4925
S'28825200'
p4926
S'87.26'
p4927
tp4928
sS'2007-04-24'
p4929
(S'93.96'
p4930
S'96.39'
p4931
S'91.30'
p4932
S'93.24'
p4933
S'37687600'
p4934
S'90.15'
p4935
tp4936
sS'2008-01-18'
p4937
(S'161.71'
p4938
S'165.75'
p4939
S'159.61'
p4940
S'161.36'
p4941
S'61583700'
p4942
S'156.02'
p4943
tp4944
sS'2005-04-20'
p4945
(S'37.66'
p4946
S'37.74'
p4947
S'35.44'
p4948
S'35.51'
p4949
S'33754700'
p4950
S'34.33'
p4951
tp4952
sS'2006-06-20'
p4953
(S'57.61'
p4954
S'58.35'
p4955
S'57.29'
p4956
S'57.47'
p4957
S'24034800'
p4958
S'55.57'
p4959
tp4960
sS'2006-06-21'
p4961
(S'57.74'
p4962
S'58.71'
p4963
S'57.30'
p4964
S'57.86'
p4965
S'30832000'
p4966
S'55.95'
p4967
tp4968
sS'2006-06-22'
p4969
(S'58.20'
p4970
S'59.75'
p4971
S'58.07'
p4972
S'59.58'
p4973
S'34486900'
p4974
S'57.61'
p4975
tp4976
sS'2006-06-23'
p4977
(S'59.72'
p4978
S'60.17'
p4979
S'58.73'
p4980
S'58.83'
p4981
S'23578700'
p4982
S'56.88'
p4983
tp4984
sS'2005-03-15'
p4985
(S'40.64'
p4986
S'41.14'
p4987
S'40.25'
p4988
S'40.96'
p4989
S'18164600'
p4990
S'39.60'
p4991
tp4992
sS'2005-03-14'
p4993
(S'40.52'
p4994
S'40.79'
p4995
S'39.52'
p4996
S'40.32'
p4997
S'21620900'
p4998
S'38.99'
p4999
tp5000
sS'2006-06-26'
p5001
(S'59.17'
p5002
S'59.20'
p5003
S'58.37'
p5004
S'58.99'
p5005
S'16662000'
p5006
S'57.04'
p5007
tp5008
sS'2006-06-27'
p5009
(S'59.09'
p5010
S'59.22'
p5011
S'57.40'
p5012
S'57.43'
p5013
S'19664700'
p5014
S'55.53'
p5015
tp5016
sS'2006-06-28'
p5017
(S'57.29'
p5018
S'57.30'
p5019
S'55.41'
p5020
S'56.02'
p5021
S'30382300'
p5022
S'54.17'
p5023
tp5024
sS'2006-06-29'
p5025
(S'56.76'
p5026
S'59.09'
p5027
S'56.39'
p5028
S'58.97'
p5029
S'31192800'
p5030
S'57.02'
p5031
tp5032
sS'2005-08-22'
p5033
(S'46.15'
p5034
S'46.75'
p5035
S'45.26'
p5036
S'45.87'
p5037
S'13847600'
p5038
S'44.35'
p5039
tp5040
sS'2005-04-22'
p5041
(S'36.84'
p5042
S'37.00'
p5043
S'34.90'
p5044
S'35.50'
p5045
S'29968900'
p5046
S'34.33'
p5047
tp5048
sS'2005-01-13'
p5049
(S'73.71'
p5050
S'74.42'
p5051
S'69.73'
p5052
S'69.80'
p5053
S'113025600'
p5054
S'33.75'
p5055
tp5056
sS'2005-01-12'
p5057
(S'65.45'
p5058
S'65.90'
p5059
S'63.30'
p5060
S'65.46'
p5061
S'68560800'
p5062
S'31.65'
p5063
tp5064
sS'2005-01-11'
p5065
(S'68.25'
p5066
S'69.15'
p5067
S'64.14'
p5068
S'64.56'
p5069
S'93272400'
p5070
S'31.21'
p5071
tp5072
sS'2005-01-10'
p5073
(S'69.83'
p5074
S'70.70'
p5075
S'67.88'
p5076
S'68.96'
p5077
S'61618200'
p5078
S'33.34'
p5079
tp5080
sS'2008-08-01'
p5081
(S'159.90'
p5082
S'159.99'
p5083
S'155.75'
p5084
S'156.66'
p5085
S'19451400'
p5086
S'151.48'
p5087
tp5088
sS'2008-08-06'
p5089
(S'159.97'
p5090
S'167.40'
p5091
S'158.00'
p5092
S'164.19'
p5093
S'28264600'
p5094
S'158.76'
p5095
tp5096
sS'2008-08-07'
p5097
(S'162.71'
p5098
S'166.15'
p5099
S'161.50'
p5100
S'163.57'
p5101
S'24013300'
p5102
S'158.16'
p5103
tp5104
sS'2008-08-04'
p5105
(S'156.60'
p5106
S'157.90'
p5107
S'152.91'
p5108
S'153.23'
p5109
S'21161700'
p5110
S'148.16'
p5111
tp5112
sS'2008-08-05'
p5113
(S'155.42'
p5114
S'160.80'
p5115
S'154.82'
p5116
S'160.64'
p5117
S'24584700'
p5118
S'155.32'
p5119
tp5120
sS'2008-08-08'
p5121
(S'163.86'
p5122
S'169.65'
p5123
S'163.75'
p5124
S'169.55'
p5125
S'25499900'
p5126
S'163.94'
p5127
tp5128
sS'2005-01-07'
p5129
(S'65.00'
p5130
S'69.63'
p5131
S'64.75'
p5132
S'69.25'
p5133
S'79551800'
p5134
S'33.48'
p5135
tp5136
sS'2005-01-19'
p5137
(S'70.49'
p5138
S'71.46'
p5139
S'69.75'
p5140
S'69.88'
p5141
S'26853400'
p5142
S'33.78'
p5143
tp5144
sS'2008-05-01'
p5145
(S'174.96'
p5146
S'180.00'
p5147
S'174.86'
p5148
S'180.00'
p5149
S'32270600'
p5150
S'174.04'
p5151
tp5152
sS'2008-03-20'
p5153
(S'131.12'
p5154
S'133.29'
p5155
S'129.18'
p5156
S'133.27'
p5157
S'32456700'
p5158
S'128.86'
p5159
tp5160
sS'2008-05-02'
p5161
(S'180.19'
p5162
S'181.92'
p5163
S'178.55'
p5164
S'180.94'
p5165
S'35931500'
p5166
S'174.95'
p5167
tp5168
sS'2008-05-05'
p5169
(S'181.92'
p5170
S'185.31'
p5171
S'181.05'
p5172
S'184.73'
p5173
S'30519900'
p5174
S'178.62'
p5175
tp5176
sS'2008-03-24'
p5177
(S'134.01'
p5178
S'140.85'
p5179
S'133.64'
p5180
S'139.53'
p5181
S'38104300'
p5182
S'134.91'
p5183
tp5184
sS'2008-05-07'
p5185
(S'186.05'
p5186
S'188.20'
p5187
S'180.54'
p5188
S'182.59'
p5189
S'41326200'
p5190
S'176.55'
p5191
tp5192
sS'2008-03-26'
p5193
(S'140.87'
p5194
S'145.74'
p5195
S'140.64'
p5196
S'145.06'
p5197
S'42217300'
p5198
S'140.26'
p5199
tp5200
sS'2008-05-09'
p5201
(S'183.16'
p5202
S'184.25'
p5203
S'181.37'
p5204
S'183.45'
p5205
S'24038300'
p5206
S'177.38'
p5207
tp5208
sS'2008-03-28'
p5209
(S'141.80'
p5210
S'144.65'
p5211
S'141.60'
p5212
S'143.01'
p5213
S'25521800'
p5214
S'138.28'
p5215
tp5216
sS'2007-07-06'
p5217
(S'133.13'
p5218
S'133.34'
p5219
S'130.40'
p5220
S'132.30'
p5221
S'31239100'
p5222
S'127.92'
p5223
tp5224
sS'2005-02-01'
p5225
(S'77.05'
p5226
S'77.77'
p5227
S'76.58'
p5228
S'77.53'
p5229
S'24228400'
p5230
S'37.48'
p5231
tp5232
sS'2007-07-02'
p5233
(S'121.05'
p5234
S'122.09'
p5235
S'119.30'
p5236
S'121.26'
p5237
S'35530800'
p5238
S'117.25'
p5239
tp5240
sS'2007-07-03'
p5241
(S'122.00'
p5242
S'127.40'
p5243
S'121.50'
p5244
S'127.17'
p5245
S'41517200'
p5246
S'122.96'
p5247
tp5248
sS'2004-12-02'
p5249
(S'66.13'
p5250
S'66.90'
p5251
S'64.66'
p5252
S'65.21'
p5253
S'35265800'
p5254
S'31.53'
p5255
tp5256
sS'2004-11-15'
p5257
(S'55.20'
p5258
S'55.46'
p5259
S'54.34'
p5260
S'55.24'
p5261
S'13430200'
p5262
S'26.71'
p5263
tp5264
sS'2006-08-14'
p5265
(S'64.05'
p5266
S'65.22'
p5267
S'63.60'
p5268
S'63.94'
p5269
S'25629300'
p5270
S'61.82'
p5271
tp5272
sS'2008-09-18'
p5273
(S'130.57'
p5274
S'135.43'
p5275
S'120.68'
p5276
S'134.09'
p5277
S'59866200'
p5278
S'129.65'
p5279
tp5280
sS'2008-09-19'
p5281
(S'142.60'
p5282
S'144.20'
p5283
S'136.31'
p5284
S'140.91'
p5285
S'51102700'
p5286
S'136.25'
p5287
tp5288
sS'2008-09-16'
p5289
(S'133.86'
p5290
S'142.50'
p5291
S'132.15'
p5292
S'139.88'
p5293
S'42851300'
p5294
S'135.25'
p5295
tp5296
sS'2008-09-17'
p5297
(S'138.49'
p5298
S'138.51'
p5299
S'127.83'
p5300
S'127.83'
p5301
S'42873400'
p5302
S'123.60'
p5303
tp5304
sS'2006-05-05'
p5305
(S'71.86'
p5306
S'72.25'
p5307
S'71.15'
p5308
S'71.89'
p5309
S'20139700'
p5310
S'69.51'
p5311
tp5312
sS'2008-09-15'
p5313
(S'142.03'
p5314
S'147.69'
p5315
S'140.36'
p5316
S'140.36'
p5317
S'32879800'
p5318
S'135.72'
p5319
tp5320
sS'2008-09-12'
p5321
(S'150.91'
p5322
S'150.91'
p5323
S'146.50'
p5324
S'148.94'
p5325
S'28322400'
p5326
S'144.01'
p5327
tp5328
sS'2006-05-02'
p5329
(S'70.15'
p5330
S'71.98'
p5331
S'70.11'
p5332
S'71.62'
p5333
S'27559400'
p5334
S'69.25'
p5335
tp5336
sS'2008-09-10'
p5337
(S'152.32'
p5338
S'154.99'
p5339
S'148.80'
p5340
S'151.61'
p5341
S'34755100'
p5342
S'146.59'
p5343
tp5344
sS'2008-09-11'
p5345
(S'148.18'
p5346
S'152.99'
p5347
S'146.00'
p5348
S'152.65'
p5349
S'34683400'
p5350
S'147.60'
p5351
tp5352
sS'2007-10-04'
p5353
(S'158.00'
p5354
S'158.08'
p5355
S'153.50'
p5356
S'156.24'
p5357
S'23462800'
p5358
S'151.07'
p5359
tp5360
sS'2007-10-05'
p5361
(S'158.37'
p5362
S'161.58'
p5363
S'157.70'
p5364
S'161.45'
p5365
S'33695400'
p5366
S'156.11'
p5367
tp5368
sS'2007-10-01'
p5369
(S'154.63'
p5370
S'157.41'
p5371
S'152.93'
p5372
S'156.34'
p5373
S'29895300'
p5374
S'151.17'
p5375
tp5376
sS'2007-10-02'
p5377
(S'156.55'
p5378
S'158.59'
p5379
S'155.89'
p5380
S'158.45'
p5381
S'28288200'
p5382
S'153.21'
p5383
tp5384
sS'2007-10-03'
p5385
(S'157.78'
p5386
S'159.18'
p5387
S'157.01'
p5388
S'157.92'
p5389
S'24732800'
p5390
S'152.69'
p5391
tp5392
sS'2005-06-21'
p5393
(S'37.72'
p5394
S'38.19'
p5395
S'37.38'
p5396
S'37.86'
p5397
S'13233100'
p5398
S'36.61'
p5399
tp5400
sS'2007-10-08'
p5401
(S'163.49'
p5402
S'167.91'
p5403
S'162.97'
p5404
S'167.91'
p5405
S'29854600'
p5406
S'162.35'
p5407
tp5408
sS'2007-10-09'
p5409
(S'170.20'
p5410
S'171.11'
p5411
S'166.68'
p5412
S'167.86'
p5413
S'39438800'
p5414
S'162.31'
p5415
tp5416
sS'2008-07-10'
p5417
(S'174.92'
p5418
S'177.34'
p5419
S'171.37'
p5420
S'176.63'
p5421
S'30024600'
p5422
S'170.78'
p5423
tp5424
sS'2009-01-13'
p5425
(S'88.24'
p5426
S'89.74'
p5427
S'86.35'
p5428
S'87.71'
p5429
S'28514200'
p5430
S'84.81'
p5431
tp5432
sS'2008-07-14'
p5433
(S'179.24'
p5434
S'179.30'
p5435
S'173.08'
p5436
S'173.88'
p5437
S'31644800'
p5438
S'168.13'
p5439
tp5440
sS'2008-07-15'
p5441
(S'172.48'
p5442
S'173.74'
p5443
S'166.39'
p5444
S'169.64'
p5445
S'37144400'
p5446
S'164.03'
p5447
tp5448
sS'2008-07-16'
p5449
(S'170.20'
p5450
S'172.93'
p5451
S'168.60'
p5452
S'172.81'
p5453
S'26706800'
p5454
S'167.09'
p5455
tp5456
sS'2009-01-12'
p5457
(S'90.46'
p5458
S'90.99'
p5459
S'87.55'
p5460
S'88.66'
p5461
S'22061300'
p5462
S'85.73'
p5463
tp5464
sS'2008-07-18'
p5465
(S'168.52'
p5466
S'169.65'
p5467
S'165.00'
p5468
S'165.15'
p5469
S'31014800'
p5470
S'159.68'
p5471
tp5472
sS'2007-04-12'
p5473
(S'92.04'
p5474
S'92.31'
p5475
S'90.72'
p5476
S'92.19'
p5477
S'23452700'
p5478
S'89.14'
p5479
tp5480
sS'2007-04-13'
p5481
(S'90.90'
p5482
S'91.40'
p5483
S'90.06'
p5484
S'90.24'
p5485
S'25712200'
p5486
S'87.25'
p5487
tp5488
sS'2007-04-10'
p5489
(S'93.67'
p5490
S'94.26'
p5491
S'93.41'
p5492
S'94.25'
p5493
S'12588100'
p5494
S'91.13'
p5495
tp5496
sS'2007-04-11'
p5497
(S'93.90'
p5498
S'93.95'
p5499
S'92.33'
p5500
S'92.59'
p5501
S'19607800'
p5502
S'89.53'
p5503
tp5504
sS'2007-04-16'
p5505
(S'90.57'
p5506
S'91.50'
p5507
S'90.25'
p5508
S'91.43'
p5509
S'21751200'
p5510
S'88.40'
p5511
tp5512
sS'2007-04-17'
p5513
(S'92.00'
p5514
S'92.30'
p5515
S'89.70'
p5516
S'90.35'
p5517
S'26854300'
p5518
S'87.36'
p5519
tp5520
sS'2005-01-06'
p5521
(S'64.67'
p5522
S'64.91'
p5523
S'63.33'
p5524
S'64.55'
p5525
S'25198400'
p5526
S'31.21'
p5527
tp5528
sS'2007-04-18'
p5529
(S'90.16'
p5530
S'90.85'
p5531
S'89.60'
p5532
S'90.40'
p5533
S'16573000'
p5534
S'87.41'
p5535
tp5536
sS'2007-04-19'
p5537
(S'90.19'
p5538
S'91.25'
p5539
S'89.83'
p5540
S'90.27'
p5541
S'15211200'
p5542
S'87.28'
p5543
tp5544
sS'2005-04-25'
p5545
(S'36.49'
p5546
S'37.02'
p5547
S'36.11'
p5548
S'36.98'
p5549
S'26659300'
p5550
S'35.76'
p5551
tp5552
sS'2005-04-27'
p5553
(S'35.89'
p5554
S'36.36'
p5555
S'35.51'
p5556
S'35.95'
p5557
S'21924600'
p5558
S'34.76'
p5559
tp5560
sS'2005-04-26'
p5561
(S'36.78'
p5562
S'37.51'
p5563
S'36.12'
p5564
S'36.19'
p5565
S'28946700'
p5566
S'34.99'
p5567
tp5568
sS'2005-04-21'
p5569
(S'36.40'
p5570
S'37.21'
p5571
S'35.90'
p5572
S'37.18'
p5573
S'27128300'
p5574
S'35.95'
p5575
tp5576
sS'2008-02-20'
p5577
(S'122.20'
p5578
S'124.60'
p5579
S'121.68'
p5580
S'123.82'
p5581
S'34551400'
p5582
S'119.72'
p5583
tp5584
sS'2009-03-31'
p5585
(S'105.45'
p5586
S'107.45'
p5587
S'105.00'
p5588
S'105.12'
p5589
S'20338500'
p5590
S'101.64'
p5591
tp5592
sS'2009-03-30'
p5593
(S'104.51'
p5594
S'105.01'
p5595
S'102.61'
p5596
S'104.49'
p5597
S'17957000'
p5598
S'101.03'
p5599
tp5600
sS'2008-02-21'
p5601
(S'126.05'
p5602
S'126.47'
p5603
S'120.86'
p5604
S'121.54'
p5605
S'33504100'
p5606
S'117.52'
p5607
tp5608
sS'2005-04-29'
p5609
(S'36.15'
p5610
S'36.23'
p5611
S'35.22'
p5612
S'36.06'
p5613
S'23986800'
p5614
S'34.87'
p5615
tp5616
sS'2005-04-28'
p5617
(S'36.29'
p5618
S'36.34'
p5619
S'35.24'
p5620
S'35.54'
p5621
S'20539500'
p5622
S'34.36'
p5623
tp5624
sS'2007-03-08'
p5625
(S'88.59'
p5626
S'88.72'
p5627
S'87.46'
p5628
S'88.00'
p5629
S'18250400'
p5630
S'85.09'
p5631
tp5632
sS'2006-10-09'
p5633
(S'73.80'
p5634
S'75.08'
p5635
S'73.53'
p5636
S'74.63'
p5637
S'15650800'
p5638
S'72.16'
p5639
tp5640
sS'2005-08-26'
p5641
(S'46.12'
p5642
S'46.34'
p5643
S'45.36'
p5644
S'45.74'
p5645
S'9323500'
p5646
S'44.23'
p5647
tp5648
sS'2006-10-02'
p5649
(S'75.10'
p5650
S'75.87'
p5651
S'74.30'
p5652
S'74.86'
p5653
S'25451400'
p5654
S'72.38'
p5655
tp5656
sS'2006-10-03'
p5657
(S'74.45'
p5658
S'74.95'
p5659
S'73.19'
p5660
S'74.08'
p5661
S'28239600'
p5662
S'71.63'
p5663
tp5664
sS'2008-03-07'
p5665
(S'120.41'
p5666
S'122.98'
p5667
S'119.05'
p5668
S'122.25'
p5669
S'43945100'
p5670
S'118.20'
p5671
tp5672
sS'2006-10-05'
p5673
(S'74.53'
p5674
S'76.16'
p5675
S'74.13'
p5676
S'74.83'
p5677
S'24424400'
p5678
S'72.35'
p5679
tp5680
sS'2006-10-04'
p5681
(S'74.10'
p5682
S'75.46'
p5683
S'73.16'
p5684
S'75.38'
p5685
S'29610100'
p5686
S'72.89'
p5687
tp5688
sS'2005-06-10'
p5689
(S'37.40'
p5690
S'37.40'
p5691
S'35.52'
p5692
S'35.81'
p5693
S'24247600'
p5694
S'34.62'
p5695
tp5696
sS'2006-10-06'
p5697
(S'74.42'
p5698
S'75.04'
p5699
S'73.81'
p5700
S'74.22'
p5701
S'16677100'
p5702
S'71.76'
p5703
tp5704
sS'2009-04-29'
p5705
(S'124.85'
p5706
S'126.85'
p5707
S'123.83'
p5708
S'125.14'
p5709
S'16361100'
p5710
S'121.00'
p5711
tp5712
sS'2009-04-28'
p5713
(S'123.35'
p5714
S'126.21'
p5715
S'123.26'
p5716
S'123.90'
p5717
S'16280600'
p5718
S'119.80'
p5719
tp5720
sS'2008-02-15'
p5721
(S'126.27'
p5722
S'127.08'
p5723
S'124.06'
p5724
S'124.63'
p5725
S'32189300'
p5726
S'120.51'
p5727
tp5728
sS'2008-02-14'
p5729
(S'129.40'
p5730
S'130.80'
p5731
S'127.01'
p5732
S'127.46'
p5733
S'34074900'
p5734
S'123.24'
p5735
tp5736
sS'2008-02-13'
p5737
(S'126.68'
p5738
S'129.78'
p5739
S'125.63'
p5740
S'129.40'
p5741
S'34590500'
p5742
S'125.12'
p5743
tp5744
sS'2008-02-12'
p5745
(S'130.70'
p5746
S'131.00'
p5747
S'123.62'
p5748
S'124.86'
p5749
S'43785000'
p5750
S'120.73'
p5751
tp5752
sS'2008-02-11'
p5753
(S'128.01'
p5754
S'129.98'
p5755
S'127.20'
p5756
S'129.45'
p5757
S'42908300'
p5758
S'125.17'
p5759
tp5760
sS'2009-04-21'
p5761
(S'118.89'
p5762
S'122.14'
p5763
S'118.60'
p5764
S'121.76'
p5765
S'16810200'
p5766
S'117.73'
p5767
tp5768
sS'2009-04-20'
p5769
(S'121.73'
p5770
S'122.99'
p5771
S'119.16'
p5772
S'120.50'
p5773
S'16659500'
p5774
S'116.51'
p5775
tp5776
sS'2009-04-23'
p5777
(S'126.62'
p5778
S'127.20'
p5779
S'123.51'
p5780
S'125.40'
p5781
S'33755600'
p5782
S'121.25'
p5783
tp5784
sS'2009-04-22'
p5785
(S'122.63'
p5786
S'125.35'
p5787
S'121.20'
p5788
S'121.51'
p5789
S'33527400'
p5790
S'117.49'
p5791
tp5792
sS'2007-06-21'
p5793
(S'121.70'
p5794
S'124.29'
p5795
S'120.72'
p5796
S'123.90'
p5797
S'30965900'
p5798
S'119.80'
p5799
tp5800
sS'2009-04-24'
p5801
(S'124.64'
p5802
S'125.14'
p5803
S'122.97'
p5804
S'123.90'
p5805
S'19313000'
p5806
S'119.80'
p5807
tp5808
sS'2009-04-27'
p5809
(S'122.90'
p5810
S'125.00'
p5811
S'122.66'
p5812
S'124.73'
p5813
S'17167500'
p5814
S'120.60'
p5815
tp5816
sS'2007-06-22'
p5817
(S'123.85'
p5818
S'124.45'
p5819
S'122.38'
p5820
S'123.00'
p5821
S'22567000'
p5822
S'118.93'
p5823
tp5824
sS'2005-08-29'
p5825
(S'45.27'
p5826
S'46.03'
p5827
S'45.26'
p5828
S'45.84'
p5829
S'9153400'
p5830
S'44.32'
p5831
tp5832
sS'2005-02-09'
p5833
(S'81.04'
p5834
S'81.99'
p5835
S'78.10'
p5836
S'78.74'
p5837
S'42552000'
p5838
S'38.07'
p5839
tp5840
sS'2005-02-18'
p5841
(S'87.74'
p5842
S'87.86'
p5843
S'86.25'
p5844
S'86.81'
p5845
S'41544800'
p5846
S'41.97'
p5847
tp5848
sS'2005-04-12'
p5849
(S'42.49'
p5850
S'43.19'
p5851
S'42.01'
p5852
S'42.66'
p5853
S'35037900'
p5854
S'41.25'
p5855
tp5856
sS'2006-01-30'
p5857
(S'71.17'
p5858
S'76.60'
p5859
S'70.87'
p5860
S'75.00'
p5861
S'49942900'
p5862
S'72.52'
p5863
tp5864
sS'2006-01-31'
p5865
(S'75.50'
p5866
S'76.34'
p5867
S'73.75'
p5868
S'75.51'
p5869
S'32626500'
p5870
S'73.01'
p5871
tp5872
sS'2007-06-05'
p5873
(S'121.41'
p5874
S'122.69'
p5875
S'120.50'
p5876
S'122.67'
p5877
S'32885200'
p5878
S'118.61'
p5879
tp5880
sS'2008-05-29'
p5881
(S'186.76'
p5882
S'188.20'
p5883
S'185.50'
p5884
S'186.69'
p5885
S'23113800'
p5886
S'180.51'
p5887
tp5888
sS'2004-12-31'
p5889
(S'64.89'
p5890
S'65.00'
p5891
S'64.03'
p5892
S'64.40'
p5893
S'9949600'
p5894
S'31.13'
p5895
tp5896
sS'2005-02-16'
p5897
(S'88.15'
p5898
S'90.20'
p5899
S'87.35'
p5900
S'90.13'
p5901
S'58544400'
p5902
S'43.57'
p5903
tp5904
sS'2006-09-01'
p5905
(S'68.48'
p5906
S'68.65'
p5907
S'67.82'
p5908
S'68.38'
p5909
S'14589100'
p5910
S'66.12'
p5911
tp5912
sS'2008-05-28'
p5913
(S'187.41'
p5914
S'187.95'
p5915
S'183.72'
p5916
S'187.01'
p5917
S'26570700'
p5918
S'180.82'
p5919
tp5920
sS'2005-07-08'
p5921
(S'37.87'
p5922
S'38.28'
p5923
S'37.47'
p5924
S'38.25'
p5925
S'10383400'
p5926
S'36.98'
p5927
tp5928
sS'2006-03-30'
p5929
(S'62.82'
p5930
S'63.30'
p5931
S'61.53'
p5932
S'62.75'
p5933
S'49666100'
p5934
S'60.67'
p5935
tp5936
sS'2005-07-06'
p5937
(S'37.71'
p5938
S'38.16'
p5939
S'37.20'
p5940
S'37.39'
p5941
S'14093800'
p5942
S'36.15'
p5943
tp5944
sS'2007-06-29'
p5945
(S'121.97'
p5946
S'124.00'
p5947
S'121.09'
p5948
S'122.04'
p5949
S'40637200'
p5950
S'118.00'
p5951
tp5952
sS'2005-07-05'
p5953
(S'36.55'
p5954
S'38.15'
p5955
S'36.50'
p5956
S'37.98'
p5957
S'16223900'
p5958
S'36.72'
p5959
tp5960
sS'2007-02-09'
p5961
(S'85.88'
p5962
S'86.20'
p5963
S'83.21'
p5964
S'83.27'
p5965
S'30733600'
p5966
S'80.51'
p5967
tp5968
sS'2005-05-13'
p5969
(S'34.20'
p5970
S'35.23'
p5971
S'34.07'
p5972
S'34.77'
p5973
S'25096900'
p5974
S'33.62'
p5975
tp5976
sS'2007-06-28'
p5977
(S'122.36'
p5978
S'122.49'
p5979
S'120.00'
p5980
S'120.56'
p5981
S'29933700'
p5982
S'116.57'
p5983
tp5984
sS'2006-05-25'
p5985
(S'64.26'
p5986
S'64.45'
p5987
S'63.29'
p5988
S'64.33'
p5989
S'16549000'
p5990
S'62.20'
p5991
tp5992
sS'2005-02-15'
p5993
(S'86.66'
p5994
S'89.08'
p5995
S'86.00'
p5996
S'88.41'
p5997
S'82579200'
p5998
S'42.74'
p5999
tp6000
sS'2006-05-24'
p6001
(S'62.99'
p6002
S'63.65'
p6003
S'61.56'
p6004
S'63.34'
p6005
S'32715400'
p6006
S'61.24'
p6007
tp6008
sS'2005-09-02'
p6009
(S'46.30'
p6010
S'46.80'
p6011
S'46.12'
p6012
S'46.22'
p6013
S'7942100'
p6014
S'44.69'
p6015
tp6016
sS'2008-03-03'
p6017
(S'124.44'
p6018
S'125.98'
p6019
S'118.00'
p6020
S'121.73'
p6021
S'56894400'
p6022
S'117.70'
p6023
tp6024
sS'2007-03-02'
p6025
(S'86.77'
p6026
S'87.54'
p6027
S'85.21'
p6028
S'85.41'
p6029
S'30714300'
p6030
S'82.58'
p6031
tp6032
sS'2005-05-18'
p6033
(S'35.45'
p6034
S'37.56'
p6035
S'34.99'
p6036
S'35.84'
p6037
S'22740100'
p6038
S'34.65'
p6039
tp6040
sS'2005-09-07'
p6041
(S'49.05'
p6042
S'49.40'
p6043
S'47.92'
p6044
S'48.68'
p6045
S'34395500'
p6046
S'47.07'
p6047
tp6048
sS'2007-03-05'
p6049
(S'85.89'
p6050
S'88.65'
p6051
S'85.76'
p6052
S'86.32'
p6053
S'29960700'
p6054
S'83.46'
p6055
tp6056
sS'2007-03-06'
p6057
(S'87.80'
p6058
S'88.31'
p6059
S'87.40'
p6060
S'88.19'
p6061
S'25828100'
p6062
S'85.27'
p6063
tp6064
sS'2007-03-07'
p6065
(S'88.05'
p6066
S'88.97'
p6067
S'87.45'
p6068
S'87.72'
p6069
S'22367300'
p6070
S'84.82'
p6071
tp6072
sS'2007-12-06'
p6073
(S'186.19'
p6074
S'190.10'
p6075
S'186.12'
p6076
S'189.95'
p6077
S'32136100'
p6078
S'183.66'
p6079
tp6080
sS'2007-12-07'
p6081
(S'190.54'
p6082
S'194.99'
p6083
S'188.04'
p6084
S'194.30'
p6085
S'38073800'
p6086
S'187.87'
p6087
tp6088
sS'2007-12-04'
p6089
(S'177.15'
p6090
S'180.90'
p6091
S'176.99'
p6092
S'179.81'
p6093
S'27635700'
p6094
S'173.86'
p6095
tp6096
sS'2007-12-05'
p6097
(S'182.89'
p6098
S'186.00'
p6099
S'182.41'
p6100
S'185.50'
p6101
S'31871500'
p6102
S'179.36'
p6103
tp6104
sS'2005-10-18'
p6105
(S'53.25'
p6106
S'53.95'
p6107
S'52.20'
p6108
S'52.21'
p6109
S'21771000'
p6110
S'50.48'
p6111
tp6112
sS'2007-12-03'
p6113
(S'181.86'
p6114
S'184.14'
p6115
S'177.70'
p6116
S'178.86'
p6117
S'34338200'
p6118
S'172.94'
p6119
tp6120
sS'2008-04-30'
p6121
(S'176.19'
p6122
S'180.00'
p6123
S'172.92'
p6124
S'173.95'
p6125
S'40697300'
p6126
S'168.19'
p6127
tp6128
sS'2007-06-26'
p6129
(S'123.98'
p6130
S'124.00'
p6131
S'118.72'
p6132
S'119.65'
p6133
S'48035900'
p6134
S'115.69'
p6135
tp6136
sS'2005-09-06'
p6137
(S'46.70'
p6138
S'48.88'
p6139
S'46.55'
p6140
S'48.80'
p6141
S'29236400'
p6142
S'47.19'
p6143
tp6144
sS'2006-05-19'
p6145
(S'63.26'
p6146
S'64.88'
p6147
S'62.82'
p6148
S'64.51'
p6149
S'35209500'
p6150
S'62.38'
p6151
tp6152
sS'2008-08-28'
p6153
(S'175.28'
p6154
S'176.25'
p6155
S'172.75'
p6156
S'173.74'
p6157
S'15406600'
p6158
S'167.99'
p6159
tp6160
sS'2006-05-22'
p6161
(S'63.87'
p6162
S'63.99'
p6163
S'62.77'
p6164
S'63.38'
p6165
S'25677700'
p6166
S'61.28'
p6167
tp6168
sS'2006-09-07'
p6169
(S'70.60'
p6170
S'73.48'
p6171
S'70.25'
p6172
S'72.80'
p6173
S'45284200'
p6174
S'70.39'
p6175
tp6176
sS'2008-03-06'
p6177
(S'124.61'
p6178
S'127.50'
p6179
S'120.81'
p6180
S'120.93'
p6181
S'52632100'
p6182
S'116.93'
p6183
tp6184
sS'2005-09-08'
p6185
(S'49.35'
p6186
S'50.12'
p6187
S'49.14'
p6188
S'49.78'
p6189
S'25094300'
p6190
S'48.13'
p6191
tp6192
sS'2008-02-19'
p6193
(S'125.99'
p6194
S'126.75'
p6195
S'121.44'
p6196
S'122.18'
p6197
S'35894500'
p6198
S'118.14'
p6199
tp6200
sS'2005-09-09'
p6201
(S'50.07'
p6202
S'51.35'
p6203
S'49.79'
p6204
S'51.31'
p6205
S'21987200'
p6206
S'49.61'
p6207
tp6208
sS'2007-01-31'
p6209
(S'84.86'
p6210
S'86.00'
p6211
S'84.35'
p6212
S'85.73'
p6213
S'30573900'
p6214
S'82.89'
p6215
tp6216
sS'2007-01-30'
p6217
(S'86.43'
p6218
S'86.49'
p6219
S'85.25'
p6220
S'85.55'
p6221
S'20641800'
p6222
S'82.72'
p6223
tp6224
sS'2005-01-18'
p6225
(S'69.85'
p6226
S'70.70'
p6227
S'67.75'
p6228
S'70.65'
p6229
S'35945000'
p6230
S'34.16'
p6231
tp6232
sS'2009-05-19'
p6233
(S'126.82'
p6234
S'129.31'
p6235
S'125.74'
p6236
S'127.45'
p6237
S'13300800'
p6238
S'123.23'
p6239
tp6240
sS'2009-05-18'
p6241
(S'123.73'
p6242
S'126.70'
p6243
S'121.57'
p6244
S'126.65'
p6245
S'16387200'
p6246
S'122.46'
p6247
tp6248
sS'2006-11-15'
p6249
(S'85.05'
p6250
S'85.90'
p6251
S'84.00'
p6252
S'84.05'
p6253
S'23404400'
p6254
S'81.27'
p6255
tp6256
sS'2006-11-14'
p6257
(S'84.80'
p6258
S'85.00'
p6259
S'83.90'
p6260
S'85.00'
p6261
S'21034100'
p6262
S'82.19'
p6263
tp6264
sS'2009-05-15'
p6265
(S'122.32'
p6266
S'124.62'
p6267
S'121.61'
p6268
S'122.42'
p6269
S'13127400'
p6270
S'118.37'
p6271
tp6272
sS'2009-05-14'
p6273
(S'119.78'
p6274
S'123.53'
p6275
S'119.70'
p6276
S'122.95'
p6277
S'15993800'
p6278
S'118.88'
p6279
tp6280
sS'2009-05-13'
p6281
(S'123.21'
p6282
S'124.02'
p6283
S'119.38'
p6284
S'119.49'
p6285
S'21284700'
p6286
S'115.54'
p6287
tp6288
sS'2009-05-12'
p6289
(S'129.56'
p6290
S'129.71'
p6291
S'123.25'
p6292
S'124.42'
p6293
S'21767200'
p6294
S'120.30'
p6295
tp6296
sS'2009-05-11'
p6297
(S'127.37'
p6298
S'130.96'
p6299
S'127.12'
p6300
S'129.57'
p6301
S'14452100'
p6302
S'125.28'
p6303
tp6304
sS'2007-05-29'
p6305
(S'114.45'
p6306
S'114.86'
p6307
S'112.69'
p6308
S'114.35'
p6309
S'23060500'
p6310
S'110.57'
p6311
tp6312
sS'2005-02-24'
p6313
(S'88.48'
p6314
S'89.31'
p6315
S'87.73'
p6316
S'88.93'
p6317
S'54251000'
p6318
S'42.99'
p6319
tp6320
sS'2005-05-10'
p6321
(S'36.75'
p6322
S'37.25'
p6323
S'36.33'
p6324
S'36.42'
p6325
S'15723700'
p6326
S'35.21'
p6327
tp6328
sS'2007-05-21'
p6329
(S'110.31'
p6330
S'112.45'
p6331
S'110.05'
p6332
S'111.98'
p6333
S'22853300'
p6334
S'108.27'
p6335
tp6336
sS'2007-05-22'
p6337
(S'112.49'
p6338
S'113.75'
p6339
S'112.01'
p6340
S'113.54'
p6341
S'20443200'
p6342
S'109.78'
p6343
tp6344
sS'2007-05-23'
p6345
(S'114.02'
p6346
S'115.00'
p6347
S'112.59'
p6348
S'112.89'
p6349
S'32549100'
p6350
S'109.15'
p6351
tp6352
sS'2007-05-24'
p6353
(S'112.81'
p6354
S'114.46'
p6355
S'110.37'
p6356
S'110.69'
p6357
S'31691500'
p6358
S'107.03'
p6359
tp6360
sS'2007-05-25'
p6361
(S'112.00'
p6362
S'113.78'
p6363
S'111.50'
p6364
S'113.62'
p6365
S'22605700'
p6366
S'109.86'
p6367
tp6368
sS'2006-09-11'
p6369
(S'72.43'
p6370
S'73.73'
p6371
S'71.42'
p6372
S'72.50'
p6373
S'33897300'
p6374
S'70.10'
p6375
tp6376
sS'2005-02-22'
p6377
(S'86.30'
p6378
S'88.30'
p6379
S'85.29'
p6380
S'85.29'
p6381
S'43546200'
p6382
S'41.23'
p6383
tp6384
sS'2004-11-04'
p6385
(S'55.03'
p6386
S'55.55'
p6387
S'54.37'
p6388
S'54.45'
p6389
S'33165200'
p6390
S'26.32'
p6391
tp6392
sS'2004-11-05'
p6393
(S'54.86'
p6394
S'55.00'
p6395
S'52.04'
p6396
S'54.72'
p6397
S'43037400'
p6398
S'26.45'
p6399
tp6400
sS'2008-10-30'
p6401
(S'108.23'
p6402
S'112.19'
p6403
S'107.61'
p6404
S'111.04'
p6405
S'58503200'
p6406
S'107.37'
p6407
tp6408
sS'2008-10-31'
p6409
(S'107.40'
p6410
S'110.78'
p6411
S'105.14'
p6412
S'107.59'
p6413
S'59277000'
p6414
S'104.03'
p6415
tp6416
sS'2009-06-09'
p6417
(S'143.81'
p6418
S'144.56'
p6419
S'140.55'
p6420
S'142.72'
p6421
S'24177300'
p6422
S'138.00'
p6423
tp6424
sS'2009-06-08'
p6425
(S'143.82'
p6426
S'144.23'
p6427
S'139.43'
p6428
S'143.85'
p6429
S'33273300'
p6430
S'139.09'
p6431
tp6432
sS'2004-11-02'
p6433
(S'52.40'
p6434
S'54.08'
p6435
S'52.40'
p6436
S'53.50'
p6437
S'26071000'
p6438
S'25.86'
p6439
tp6440
sS'2005-08-15'
p6441
(S'46.48'
p6442
S'48.33'
p6443
S'46.45'
p6444
S'47.68'
p6445
S'38811700'
p6446
S'46.10'
p6447
tp6448
sS'2009-06-05'
p6449
(S'145.31'
p6450
S'146.40'
p6451
S'143.21'
p6452
S'144.67'
p6453
S'22597000'
p6454
S'139.88'
p6455
tp6456
sS'2009-06-04'
p6457
(S'140.13'
p6458
S'144.18'
p6459
S'140.04'
p6460
S'143.74'
p6461
S'19665500'
p6462
S'138.98'
p6463
tp6464
sS'2008-06-20'
p6465
(S'179.35'
p6466
S'181.00'
p6467
S'175.00'
p6468
S'175.27'
p6469
S'31727400'
p6470
S'169.47'
p6471
tp6472
sS'2004-12-13'
p6473
(S'65.62'
p6474
S'65.90'
p6475
S'64.60'
p6476
S'64.91'
p6477
S'14108600'
p6478
S'31.38'
p6479
tp6480
sS'2008-06-26'
p6481
(S'174.07'
p6482
S'174.84'
p6483
S'168.01'
p6484
S'168.26'
p6485
S'31057500'
p6486
S'162.69'
p6487
tp6488
sS'2008-06-27'
p6489
(S'166.51'
p6490
S'170.57'
p6491
S'164.15'
p6492
S'170.09'
p6493
S'37223200'
p6494
S'164.46'
p6495
tp6496
sS'2008-06-24'
p6497
(S'172.37'
p6498
S'175.78'
p6499
S'171.63'
p6500
S'173.25'
p6501
S'22212400'
p6502
S'167.52'
p6503
tp6504
sS'2008-06-25'
p6505
(S'174.61'
p6506
S'178.83'
p6507
S'173.88'
p6508
S'177.39'
p6509
S'23016100'
p6510
S'171.52'
p6511
tp6512
sS'2006-12-18'
p6513
(S'87.63'
p6514
S'88.00'
p6515
S'84.59'
p6516
S'85.47'
p6517
S'25770600'
p6518
S'82.64'
p6519
tp6520
sS'2006-12-19'
p6521
(S'84.73'
p6522
S'86.68'
p6523
S'83.62'
p6524
S'86.31'
p6525
S'32550200'
p6526
S'83.45'
p6527
tp6528
sS'2009-02-18'
p6529
(S'95.05'
p6530
S'95.85'
p6531
S'92.72'
p6532
S'94.37'
p6533
S'24456400'
p6534
S'91.25'
p6535
tp6536
sS'2009-02-19'
p6537
(S'93.37'
p6538
S'94.25'
p6539
S'90.11'
p6540
S'90.64'
p6541
S'32957300'
p6542
S'87.64'
p6543
tp6544
sS'2005-02-04'
p6545
(S'77.87'
p6546
S'78.93'
p6547
S'77.53'
p6548
S'78.84'
p6549
S'20127000'
p6550
S'38.12'
p6551
tp6552
sS'2009-02-12'
p6553
(S'95.83'
p6554
S'99.75'
p6555
S'95.83'
p6556
S'99.27'
p6557
S'29185300'
p6558
S'95.98'
p6559
tp6560
sS'2009-02-13'
p6561
(S'98.99'
p6562
S'99.94'
p6563
S'98.12'
p6564
S'99.16'
p6565
S'21749200'
p6566
S'95.88'
p6567
tp6568
sS'2009-02-10'
p6569
(S'101.33'
p6570
S'102.51'
p6571
S'97.06'
p6572
S'97.83'
p6573
S'30323600'
p6574
S'94.59'
p6575
tp6576
sS'2009-02-11'
p6577
(S'96.37'
p6578
S'98.31'
p6579
S'95.77'
p6580
S'96.82'
p6581
S'24106200'
p6582
S'93.62'
p6583
tp6584
sS'2006-12-14'
p6585
(S'89.05'
p6586
S'90.00'
p6587
S'88.26'
p6588
S'88.55'
p6589
S'29726100'
p6590
S'85.62'
p6591
tp6592
sS'2009-02-17'
p6593
(S'96.87'
p6594
S'97.04'
p6595
S'94.28'
p6596
S'94.53'
p6597
S'24222800'
p6598
S'91.40'
p6599
tp6600
sS'2005-08-11'
p6601
(S'43.39'
p6602
S'44.12'
p6603
S'43.25'
p6604
S'44.00'
p6605
S'9713700'
p6606
S'42.54'
p6607
tp6608
sS'2007-03-09'
p6609
(S'88.80'
p6610
S'88.85'
p6611
S'87.40'
p6612
S'87.97'
p6613
S'16137000'
p6614
S'85.06'
p6615
tp6616
sS'2005-08-12'
p6617
(S'43.46'
p6618
S'46.22'
p6619
S'43.36'
p6620
S'46.10'
p6621
S'32715600'
p6622
S'44.57'
p6623
tp6624
sS'2004-08-20'
p6625
(S'30.71'
p6626
S'30.99'
p6627
S'30.49'
p6628
S'30.80'
p6629
S'11313600'
p6630
S'14.89'
p6631
tp6632
sS'2004-12-27'
p6633
(S'64.80'
p6634
S'65.15'
p6635
S'62.88'
p6636
S'63.16'
p6637
S'19981800'
p6638
S'30.53'
p6639
tp6640
sS'2004-08-24'
p6641
(S'31.26'
p6642
S'31.95'
p6643
S'31.19'
p6644
S'31.95'
p6645
S'13362000'
p6646
S'15.45'
p6647
tp6648
sS'2004-08-25'
p6649
(S'31.87'
p6650
S'33.15'
p6651
S'31.73'
p6652
S'33.05'
p6653
S'18057800'
p6654
S'15.98'
p6655
tp6656
sS'2004-11-11'
p6657
(S'54.95'
p6658
S'55.43'
p6659
S'54.23'
p6660
S'55.30'
p6661
S'14546400'
p6662
S'26.74'
p6663
tp6664
sS'2004-08-27'
p6665
(S'34.68'
p6666
S'34.76'
p6667
S'34.00'
p6668
S'34.35'
p6669
S'13886200'
p6670
S'16.61'
p6671
tp6672
sS'2005-01-26'
p6673
(S'72.66'
p6674
S'72.75'
p6675
S'71.22'
p6676
S'72.25'
p6677
S'26410600'
p6678
S'34.93'
p6679
tp6680
sS'2005-01-27'
p6681
(S'72.16'
p6682
S'72.92'
p6683
S'71.55'
p6684
S'72.64'
p6685
S'17722400'
p6686
S'35.12'
p6687
tp6688
sS'2005-01-24'
p6689
(S'70.98'
p6690
S'71.78'
p6691
S'70.55'
p6692
S'70.76'
p6693
S'30058200'
p6694
S'34.21'
p6695
tp6696
sS'2005-01-25'
p6697
(S'71.37'
p6698
S'72.84'
p6699
S'70.94'
p6700
S'72.05'
p6701
S'34615400'
p6702
S'34.83'
p6703
tp6704
sS'2005-01-20'
p6705
(S'69.65'
p6706
S'71.27'
p6707
S'69.47'
p6708
S'70.46'
p6709
S'32675800'
p6710
S'34.06'
p6711
tp6712
sS'2005-01-21'
p6713
(S'71.31'
p6714
S'71.60'
p6715
S'70.00'
p6716
S'70.49'
p6717
S'32547600'
p6718
S'34.08'
p6719
tp6720
sS'2005-02-28'
p6721
(S'44.68'
p6722
S'45.14'
p6723
S'43.96'
p6724
S'44.86'
p6725
S'23271800'
p6726
S'43.38'
p6727
tp6728
sS'2006-02-08'
p6729
(S'68.49'
p6730
S'69.08'
p6731
S'66.00'
p6732
S'68.81'
p6733
S'34039800'
p6734
S'66.53'
p6735
tp6736
sS'2005-01-28'
p6737
(S'72.62'
p6738
S'73.98'
p6739
S'72.44'
p6740
S'73.98'
p6741
S'28629000'
p6742
S'35.77'
p6743
tp6744
sS'2005-11-25'
p6745
(S'67.66'
p6746
S'69.54'
p6747
S'67.50'
p6748
S'69.34'
p6749
S'14107600'
p6750
S'67.05'
p6751
tp6752
sS'2004-11-10'
p6753
(S'53.95'
p6754
S'55.39'
p6755
S'53.91'
p6756
S'54.75'
p6757
S'18167000'
p6758
S'26.47'
p6759
tp6760
sS'2005-11-23'
p6761
(S'66.88'
p6762
S'67.98'
p6763
S'66.69'
p6764
S'67.11'
p6765
S'17351900'
p6766
S'64.89'
p6767
tp6768
sS'2005-11-22'
p6769
(S'64.84'
p6770
S'66.76'
p6771
S'64.52'
p6772
S'66.52'
p6773
S'19295800'
p6774
S'64.32'
p6775
tp6776
sS'2005-11-21'
p6777
(S'64.82'
p6778
S'65.19'
p6779
S'63.72'
p6780
S'64.96'
p6781
S'18275400'
p6782
S'62.81'
p6783
tp6784
sS'2005-08-18'
p6785
(S'46.91'
p6786
S'47.00'
p6787
S'45.75'
p6788
S'46.30'
p6789
S'15805700'
p6790
S'44.77'
p6791
tp6792
sS'2004-11-23'
p6793
(S'62.30'
p6794
S'62.45'
p6795
S'61.05'
p6796
S'61.27'
p6797
S'32551800'
p6798
S'29.62'
p6799
tp6800
sS'2005-06-14'
p6801
(S'35.92'
p6802
S'36.15'
p6803
S'35.75'
p6804
S'36.00'
p6805
S'12423100'
p6806
S'34.81'
p6807
tp6808
sS'2005-11-29'
p6809
(S'69.99'
p6810
S'70.30'
p6811
S'67.35'
p6812
S'68.10'
p6813
S'31836900'
p6814
S'65.85'
p6815
tp6816
sS'2005-11-28'
p6817
(S'70.72'
p6818
S'71.07'
p6819
S'69.07'
p6820
S'69.66'
p6821
S'36375700'
p6822
S'67.35'
p6823
tp6824
sS'2007-08-27'
p6825
(S'133.39'
p6826
S'134.66'
p6827
S'132.10'
p6828
S'132.25'
p6829
S'25265700'
p6830
S'127.87'
p6831
tp6832
sS'2004-12-22'
p6833
(S'63.66'
p6834
S'64.36'
p6835
S'63.40'
p6836
S'63.75'
p6837
S'20208200'
p6838
S'30.82'
p6839
tp6840
sS'2004-12-21'
p6841
(S'63.56'
p6842
S'63.77'
p6843
S'61.60'
p6844
S'63.69'
p6845
S'38014800'
p6846
S'30.79'
p6847
tp6848
sS'2007-08-24'
p6849
(S'130.53'
p6850
S'135.37'
p6851
S'129.81'
p6852
S'135.30'
p6853
S'32565500'
p6854
S'130.82'
p6855
tp6856
sS'2007-08-23'
p6857
(S'133.09'
p6858
S'133.34'
p6859
S'129.76'
p6860
S'131.07'
p6861
S'30958500'
p6862
S'126.73'
p6863
tp6864
sS'2007-08-22'
p6865
(S'131.22'
p6866
S'132.75'
p6867
S'130.33'
p6868
S'132.51'
p6869
S'37920200'
p6870
S'128.12'
p6871
tp6872
sS'2007-08-21'
p6873
(S'122.21'
p6874
S'128.96'
p6875
S'121.00'
p6876
S'127.57'
p6877
S'46537400'
p6878
S'123.35'
p6879
tp6880
sS'2007-08-20'
p6881
(S'123.96'
p6882
S'124.50'
p6883
S'120.50'
p6884
S'122.22'
p6885
S'28689900'
p6886
S'118.18'
p6887
tp6888
sS'2004-12-29'
p6889
(S'63.81'
p6890
S'64.98'
p6891
S'63.57'
p6892
S'64.44'
p6893
S'16055800'
p6894
S'31.15'
p6895
tp6896
sS'2004-12-28'
p6897
(S'63.30'
p6898
S'64.25'
p6899
S'62.05'
p6900
S'64.18'
p6901
S'21848400'
p6902
S'31.03'
p6903
tp6904
sS'2007-08-29'
p6905
(S'129.88'
p6906
S'134.18'
p6907
S'129.54'
p6908
S'134.08'
p6909
S'41673600'
p6910
S'129.64'
p6911
tp6912
sS'2007-08-28'
p6913
(S'130.99'
p6914
S'132.41'
p6915
S'126.63'
p6916
S'126.82'
p6917
S'42120200'
p6918
S'122.62'
p6919
tp6920
sS'2008-10-21'
p6921
(S'96.95'
p6922
S'97.90'
p6923
S'91.16'
p6924
S'91.49'
p6925
S'78345000'
p6926
S'88.46'
p6927
tp6928
sS'2005-08-09'
p6929
(S'42.93'
p6930
S'43.89'
p6931
S'42.91'
p6932
S'43.82'
p6933
S'13601400'
p6934
S'42.37'
p6935
tp6936
sS'2005-08-08'
p6937
(S'43.00'
p6938
S'43.25'
p6939
S'42.61'
p6940
S'42.65'
p6941
S'6299400'
p6942
S'41.24'
p6943
tp6944
sS'2006-09-20'
p6945
(S'74.38'
p6946
S'75.68'
p6947
S'74.22'
p6948
S'75.26'
p6949
S'29385400'
p6950
S'72.77'
p6951
tp6952
sS'2005-08-03'
p6953
(S'43.19'
p6954
S'43.31'
p6955
S'42.77'
p6956
S'43.22'
p6957
S'9225800'
p6958
S'41.79'
p6959
tp6960
sS'2005-08-02'
p6961
(S'42.89'
p6962
S'43.50'
p6963
S'42.61'
p6964
S'43.19'
p6965
S'10602700'
p6966
S'41.76'
p6967
tp6968
sS'2005-08-01'
p6969
(S'42.57'
p6970
S'43.08'
p6971
S'42.08'
p6972
S'42.75'
p6973
S'11223200'
p6974
S'41.34'
p6975
tp6976
sS'2005-08-05'
p6977
(S'42.49'
p6978
S'43.36'
p6979
S'42.02'
p6980
S'42.99'
p6981
S'8640400'
p6982
S'41.57'
p6983
tp6984
sS'2005-08-04'
p6985
(S'42.89'
p6986
S'43.00'
p6987
S'42.29'
p6988
S'42.71'
p6989
S'9618000'
p6990
S'41.30'
p6991
tp6992
sS'2006-08-01'
p6993
(S'67.22'
p6994
S'67.93'
p6995
S'65.94'
p6996
S'67.18'
p6997
S'25420200'
p6998
S'64.96'
p6999
tp7000
sS'2006-08-02'
p7001
(S'67.65'
p7002
S'68.68'
p7003
S'67.51'
p7004
S'68.16'
p7005
S'19670300'
p7006
S'65.90'
p7007
tp7008
sS'2008-11-03'
p7009
(S'105.93'
p7010
S'109.10'
p7011
S'104.86'
p7012
S'106.96'
p7013
S'37783500'
p7014
S'103.42'
p7015
tp7016
sS'2008-11-04'
p7017
(S'109.99'
p7018
S'111.79'
p7019
S'106.67'
p7020
S'110.99'
p7021
S'49952900'
p7022
S'107.32'
p7023
tp7024
sS'2008-11-05'
p7025
(S'108.91'
p7026
S'109.72'
p7027
S'102.99'
p7028
S'103.30'
p7029
S'44873400'
p7030
S'99.88'
p7031
tp7032
sS'2008-11-06'
p7033
(S'101.05'
p7034
S'102.78'
p7035
S'98.00'
p7036
S'99.10'
p7037
S'47109800'
p7038
S'95.82'
p7039
tp7040
sS'2008-11-07'
p7041
(S'99.24'
p7042
S'99.85'
p7043
S'95.72'
p7044
S'98.24'
p7045
S'39116200'
p7046
S'94.99'
p7047
tp7048
sS'2006-08-08'
p7049
(S'67.09'
p7050
S'67.11'
p7051
S'64.51'
p7052
S'64.78'
p7053
S'35638000'
p7054
S'62.64'
p7055
tp7056
sS'2006-08-09'
p7057
(S'65.43'
p7058
S'65.60'
p7059
S'63.40'
p7060
S'63.59'
p7061
S'34137100'
p7062
S'61.49'
p7063
tp7064
sS'2006-03-14'
p7065
(S'65.77'
p7066
S'67.32'
p7067
S'65.50'
p7068
S'67.32'
p7069
S'22929300'
p7070
S'65.09'
p7071
tp7072
sS'2004-08-23'
p7073
(S'30.86'
p7074
S'31.27'
p7075
S'30.60'
p7076
S'31.08'
p7077
S'9095000'
p7078
S'15.03'
p7079
tp7080
sS'2004-12-17'
p7081
(S'66.84'
p7082
S'67.04'
p7083
S'64.90'
p7084
S'64.99'
p7085
S'27982000'
p7086
S'31.42'
p7087
tp7088
sS'2006-09-27'
p7089
(S'77.17'
p7090
S'77.47'
p7091
S'75.82'
p7092
S'76.41'
p7093
S'28941900'
p7094
S'73.88'
p7095
tp7096
sS'2004-10-08'
p7097
(S'39.56'
p7098
S'39.77'
p7099
S'38.84'
p7100
S'39.06'
p7101
S'12829600'
p7102
S'18.88'
p7103
tp7104
sS'2006-09-29'
p7105
(S'77.11'
p7106
S'77.52'
p7107
S'76.68'
p7108
S'76.98'
p7109
S'14493300'
p7110
S'74.43'
p7111
tp7112
sS'2008-10-28'
p7113
(S'95.43'
p7114
S'100.50'
p7115
S'92.37'
p7116
S'99.91'
p7117
S'58361900'
p7118
S'96.60'
p7119
tp7120
sS'2009-03-06'
p7121
(S'88.34'
p7122
S'88.40'
p7123
S'82.33'
p7124
S'85.30'
p7125
S'36112400'
p7126
S'82.48'
p7127
tp7128
sS'2005-12-22'
p7129
(S'73.91'
p7130
S'74.49'
p7131
S'73.60'
p7132
S'74.02'
p7133
S'13236100'
p7134
S'71.57'
p7135
tp7136
sS'2009-03-04'
p7137
(S'90.18'
p7138
S'92.77'
p7139
S'89.45'
p7140
S'91.17'
p7141
S'26478700'
p7142
S'88.15'
p7143
tp7144
sS'2009-03-05'
p7145
(S'90.46'
p7146
S'91.87'
p7147
S'88.45'
p7148
S'88.84'
p7149
S'25246400'
p7150
S'85.90'
p7151
tp7152
sS'2009-03-02'
p7153
(S'88.12'
p7154
S'91.20'
p7155
S'87.67'
p7156
S'87.94'
p7157
S'27533200'
p7158
S'85.03'
p7159
tp7160
sS'2009-03-03'
p7161
(S'88.93'
p7162
S'90.74'
p7163
S'87.88'
p7164
S'88.37'
p7165
S'25869300'
p7166
S'85.45'
p7167
tp7168
sS'2005-12-23'
p7169
(S'74.17'
p7170
S'74.26'
p7171
S'73.30'
p7172
S'73.35'
p7173
S'8209200'
p7174
S'70.92'
p7175
tp7176
sS'2004-12-14'
p7177
(S'65.40'
p7178
S'65.88'
p7179
S'65.02'
p7180
S'65.29'
p7181
S'14847200'
p7182
S'31.56'
p7183
tp7184
sS'2006-07-21'
p7185
(S'59.82'
p7186
S'61.15'
p7187
S'59.64'
p7188
S'60.72'
p7189
S'31853300'
p7190
S'58.71'
p7191
tp7192
sS'2006-07-20'
p7193
(S'60.96'
p7194
S'61.59'
p7195
S'59.72'
p7196
S'60.50'
p7197
S'70433800'
p7198
S'58.50'
p7199
tp7200
sS'2006-07-27'
p7201
(S'64.50'
p7202
S'65.02'
p7203
S'62.86'
p7204
S'63.40'
p7205
S'26251600'
p7206
S'61.30'
p7207
tp7208
sS'2006-07-26'
p7209
(S'62.00'
p7210
S'64.64'
p7211
S'61.68'
p7212
S'63.87'
p7213
S'32086700'
p7214
S'61.76'
p7215
tp7216
sS'2006-07-25'
p7217
(S'61.78'
p7218
S'62.09'
p7219
S'60.78'
p7220
S'61.93'
p7221
S'21038200'
p7222
S'59.88'
p7223
tp7224
sS'2006-07-24'
p7225
(S'61.26'
p7226
S'62.10'
p7227
S'60.43'
p7228
S'61.42'
p7229
S'25816300'
p7230
S'59.39'
p7231
tp7232
sS'2006-07-28'
p7233
(S'63.94'
p7234
S'65.68'
p7235
S'63.50'
p7236
S'65.59'
p7237
S'24696700'
p7238
S'63.42'
p7239
tp7240
sS'2005-02-03'
p7241
(S'79.10'
p7242
S'79.43'
p7243
S'77.33'
p7244
S'77.81'
p7245
S'26130400'
p7246
S'37.62'
p7247
tp7248
sS'2006-12-05'
p7249
(S'91.65'
p7250
S'92.33'
p7251
S'90.87'
p7252
S'91.27'
p7253
S'23672800'
p7254
S'88.25'
p7255
tp7256
sS'2007-03-01'
p7257
(S'84.03'
p7258
S'88.31'
p7259
S'83.75'
p7260
S'87.06'
p7261
S'50554600'
p7262
S'84.18'
p7263
tp7264
sS'2008-02-28'
p7265
(S'127.20'
p7266
S'132.20'
p7267
S'125.77'
p7268
S'129.91'
p7269
S'57794800'
p7270
S'125.61'
p7271
tp7272
sS'2008-02-29'
p7273
(S'129.29'
p7274
S'130.21'
p7275
S'124.80'
p7276
S'125.02'
p7277
S'44838600'
p7278
S'120.88'
p7279
tp7280
sS'2008-02-26'
p7281
(S'117.64'
p7282
S'121.09'
p7283
S'115.44'
p7284
S'119.15'
p7285
S'53746000'
p7286
S'115.21'
p7287
tp7288
sS'2008-02-27'
p7289
(S'118.23'
p7290
S'123.05'
p7291
S'118.09'
p7292
S'122.96'
p7293
S'52683500'
p7294
S'118.89'
p7295
tp7296
sS'2008-02-25'
p7297
(S'118.59'
p7298
S'120.17'
p7299
S'116.66'
p7300
S'119.74'
p7301
S'44884800'
p7302
S'115.78'
p7303
tp7304
sS'2008-02-22'
p7305
(S'122.48'
p7306
S'122.51'
p7307
S'115.87'
p7308
S'119.46'
p7309
S'54638500'
p7310
S'115.51'
p7311
tp7312
sS'2009-01-16'
p7313
(S'84.30'
p7314
S'84.38'
p7315
S'80.40'
p7316
S'82.33'
p7317
S'37415200'
p7318
S'79.61'
p7319
tp7320
sS'2009-01-15'
p7321
(S'80.57'
p7322
S'84.12'
p7323
S'80.05'
p7324
S'83.38'
p7325
S'65415500'
p7326
S'80.62'
p7327
tp7328
sS'2009-01-14'
p7329
(S'86.24'
p7330
S'87.25'
p7331
S'84.72'
p7332
S'85.33'
p7333
S'36488000'
p7334
S'82.51'
p7335
tp7336
sS'2004-10-15'
p7337
(S'44.88'
p7338
S'45.61'
p7339
S'44.19'
p7340
S'45.50'
p7341
S'36826000'
p7342
S'22.00'
p7343
tp7344
sS'2006-12-28'
p7345
(S'80.22'
p7346
S'81.25'
p7347
S'79.65'
p7348
S'80.87'
p7349
S'39995600'
p7350
S'78.19'
p7351
tp7352
sS'2005-10-05'
p7353
(S'54.33'
p7354
S'54.36'
p7355
S'52.75'
p7356
S'52.78'
p7357
S'21813200'
p7358
S'51.03'
p7359
tp7360
sS'2005-10-17'
p7361
(S'53.98'
p7362
S'54.23'
p7363
S'52.68'
p7364
S'53.44'
p7365
S'22029800'
p7366
S'51.67'
p7367
tp7368
sS'2008-12-29'
p7369
(S'86.52'
p7370
S'87.62'
p7371
S'85.07'
p7372
S'86.61'
p7373
S'24500000'
p7374
S'83.74'
p7375
tp7376
sS'2007-02-07'
p7377
(S'84.48'
p7378
S'86.38'
p7379
S'83.55'
p7380
S'86.15'
p7381
S'38100900'
p7382
S'83.30'
p7383
tp7384
sS'2008-12-26'
p7385
(S'86.64'
p7386
S'87.42'
p7387
S'85.24'
p7388
S'85.81'
p7389
S'11011600'
p7390
S'82.97'
p7391
tp7392
sS'2008-12-24'
p7393
(S'86.14'
p7394
S'86.25'
p7395
S'84.55'
p7396
S'85.04'
p7397
S'9690500'
p7398
S'82.23'
p7399
tp7400
sS'2008-12-23'
p7401
(S'86.87'
p7402
S'87.87'
p7403
S'85.90'
p7404
S'86.38'
p7405
S'22679700'
p7406
S'83.52'
p7407
tp7408
sS'2008-12-22'
p7409
(S'90.02'
p7410
S'90.03'
p7411
S'84.69'
p7412
S'85.74'
p7413
S'30169300'
p7414
S'82.90'
p7415
tp7416
sS'2006-04-04'
p7417
(S'62.10'
p7418
S'62.22'
p7419
S'61.05'
p7420
S'61.17'
p7421
S'33283000'
p7422
S'59.15'
p7423
tp7424
sS'2006-04-05'
p7425
(S'64.71'
p7426
S'67.21'
p7427
S'64.15'
p7428
S'67.21'
p7429
S'79764600'
p7430
S'64.99'
p7431
tp7432
sS'2006-04-06'
p7433
(S'68.30'
p7434
S'72.05'
p7435
S'68.20'
p7436
S'71.24'
p7437
S'95134600'
p7438
S'68.88'
p7439
tp7440
sS'2006-04-07'
p7441
(S'70.93'
p7442
S'71.21'
p7443
S'68.47'
p7444
S'69.79'
p7445
S'55187100'
p7446
S'67.48'
p7447
tp7448
sS'2005-12-28'
p7449
(S'74.47'
p7450
S'74.76'
p7451
S'73.32'
p7452
S'73.57'
p7453
S'14218400'
p7454
S'71.14'
p7455
tp7456
sS'2006-04-03'
p7457
(S'63.67'
p7458
S'64.12'
p7459
S'62.61'
p7460
S'62.65'
p7461
S'29135400'
p7462
S'60.58'
p7463
tp7464
sS'2005-12-29'
p7465
(S'73.78'
p7466
S'73.82'
p7467
S'71.42'
p7468
S'71.45'
p7469
S'17500900'
p7470
S'69.09'
p7471
tp7472
sS'2005-02-23'
p7473
(S'86.72'
p7474
S'88.45'
p7475
S'85.55'
p7476
S'88.23'
p7477
S'48042200'
p7478
S'42.66'
p7479
tp7480
sS'2005-05-23'
p7481
(S'37.85'
p7482
S'39.90'
p7483
S'37.85'
p7484
S'39.76'
p7485
S'37234800'
p7486
S'38.44'
p7487
tp7488
sS'2005-05-20'
p7489
(S'37.25'
p7490
S'37.65'
p7491
S'37.19'
p7492
S'37.55'
p7493
S'16166100'
p7494
S'36.31'
p7495
tp7496
sS'2004-09-17'
p7497
(S'36.55'
p7498
S'37.38'
p7499
S'36.40'
p7500
S'37.14'
p7501
S'17939600'
p7502
S'17.96'
p7503
tp7504
sS'2006-03-16'
p7505
(S'66.85'
p7506
S'66.90'
p7507
S'64.30'
p7508
S'64.31'
p7509
S'26772800'
p7510
S'62.18'
p7511
tp7512
sS'2007-11-27'
p7513
(S'175.22'
p7514
S'175.79'
p7515
S'170.01'
p7516
S'174.81'
p7517
S'47036800'
p7518
S'169.03'
p7519
tp7520
sS'2007-11-26'
p7521
(S'173.59'
p7522
S'177.27'
p7523
S'172.35'
p7524
S'172.54'
p7525
S'46634100'
p7526
S'166.83'
p7527
tp7528
sS'2007-11-21'
p7529
(S'165.84'
p7530
S'172.35'
p7531
S'164.67'
p7532
S'168.46'
p7533
S'43493200'
p7534
S'162.89'
p7535
tp7536
sS'2007-11-20'
p7537
(S'165.67'
p7538
S'171.79'
p7539
S'163.53'
p7540
S'168.85'
p7541
S'55130100'
p7542
S'163.26'
p7543
tp7544
sS'2007-11-23'
p7545
(S'172.00'
p7546
S'172.05'
p7547
S'169.75'
p7548
S'171.54'
p7549
S'16634200'
p7550
S'165.86'
p7551
tp7552
sS'2006-03-17'
p7553
(S'64.75'
p7554
S'65.54'
p7555
S'64.11'
p7556
S'64.66'
p7557
S'29001500'
p7558
S'62.52'
p7559
tp7560
sS'2005-05-26'
p7561
(S'39.94'
p7562
S'40.94'
p7563
S'39.94'
p7564
S'40.74'
p7565
S'18768600'
p7566
S'39.39'
p7567
tp7568
sS'2007-11-29'
p7569
(S'179.43'
p7570
S'185.17'
p7571
S'179.15'
p7572
S'184.29'
p7573
S'37533100'
p7574
S'178.19'
p7575
tp7576
sS'2007-11-28'
p7577
(S'176.82'
p7578
S'180.60'
p7579
S'175.35'
p7580
S'180.22'
p7581
S'41104000'
p7582
S'174.26'
p7583
tp7584
sS'2005-05-27'
p7585
(S'40.64'
p7586
S'40.79'
p7587
S'40.01'
p7588
S'40.56'
p7589
S'11286000'
p7590
S'39.22'
p7591
tp7592
sS'2008-04-07'
p7593
(S'156.13'
p7594
S'159.69'
p7595
S'155.11'
p7596
S'155.89'
p7597
S'41368800'
p7598
S'150.73'
p7599
tp7600
sS'2008-04-04'
p7601
(S'152.19'
p7602
S'154.71'
p7603
S'150.75'
p7604
S'153.08'
p7605
S'30514900'
p7606
S'148.01'
p7607
tp7608
sS'2006-12-04'
p7609
(S'91.88'
p7610
S'92.05'
p7611
S'90.50'
p7612
S'91.12'
p7613
S'25340600'
p7614
S'88.10'
p7615
tp7616
sS'2008-04-02'
p7617
(S'148.78'
p7618
S'151.20'
p7619
S'145.85'
p7620
S'147.49'
p7621
S'37320300'
p7622
S'142.61'
p7623
tp7624
sS'2008-04-03'
p7625
(S'147.06'
p7626
S'153.63'
p7627
S'147.00'
p7628
S'151.61'
p7629
S'37556000'
p7630
S'146.59'
p7631
tp7632
sS'2005-05-24'
p7633
(S'39.45'
p7634
S'39.99'
p7635
S'39.03'
p7636
S'39.70'
p7637
S'21195000'
p7638
S'38.39'
p7639
tp7640
sS'2008-04-01'
p7641
(S'146.30'
p7642
S'149.66'
p7643
S'143.61'
p7644
S'149.53'
p7645
S'36877400'
p7646
S'144.58'
p7647
tp7648
sS'2006-03-13'
p7649
(S'65.05'
p7650
S'66.28'
p7651
S'64.79'
p7652
S'65.68'
p7653
S'30756700'
p7654
S'63.51'
p7655
tp7656
sS'2006-03-20'
p7657
(S'65.22'
p7658
S'65.46'
p7659
S'63.87'
p7660
S'63.99'
p7661
S'21622900'
p7662
S'61.87'
p7663
tp7664
sS'2005-05-19'
p7665
(S'35.78'
p7666
S'37.68'
p7667
S'35.78'
p7668
S'37.55'
p7669
S'28327200'
p7670
S'36.31'
p7671
tp7672
sS'2008-04-08'
p7673
(S'153.55'
p7674
S'156.45'
p7675
S'152.32'
p7676
S'152.84'
p7677
S'36224800'
p7678
S'147.78'
p7679
tp7680
sS'2008-04-09'
p7681
(S'153.31'
p7682
S'153.89'
p7683
S'150.46'
p7684
S'151.44'
p7685
S'31192800'
p7686
S'146.43'
p7687
tp7688
sS'2006-03-27'
p7689
(S'60.35'
p7690
S'61.38'
p7691
S'59.40'
p7692
S'59.51'
p7693
S'39574000'
p7694
S'57.54'
p7695
tp7696
sS'2008-01-04'
p7697
(S'191.45'
p7698
S'193.00'
p7699
S'178.89'
p7700
S'180.05'
p7701
S'51994000'
p7702
S'174.09'
p7703
tp7704
sS'2008-01-07'
p7705
(S'181.25'
p7706
S'183.60'
p7707
S'170.23'
p7708
S'177.64'
p7709
S'74006900'
p7710
S'171.76'
p7711
tp7712
sS'2006-03-24'
p7713
(S'60.25'
p7714
S'60.94'
p7715
S'59.03'
p7716
S'59.96'
p7717
S'38285000'
p7718
S'57.98'
p7719
tp7720
sS'2006-03-23'
p7721
(S'61.82'
p7722
S'61.90'
p7723
S'59.61'
p7724
S'60.16'
p7725
S'50993800'
p7726
S'58.17'
p7727
tp7728
sS'2006-03-22'
p7729
(S'62.16'
p7730
S'63.25'
p7731
S'61.27'
p7732
S'61.67'
p7733
S'48067700'
p7734
S'59.63'
p7735
tp7736
sS'2008-01-03'
p7737
(S'195.41'
p7738
S'197.39'
p7739
S'192.69'
p7740
S'194.93'
p7741
S'30073800'
p7742
S'188.48'
p7743
tp7744
sS'2008-05-08'
p7745
(S'183.77'
p7746
S'186.50'
p7747
S'183.07'
p7748
S'185.06'
p7749
S'32110200'
p7750
S'178.94'
p7751
tp7752
sS'2004-09-30'
p7753
(S'39.00'
p7754
S'39.27'
p7755
S'38.45'
p7756
S'38.75'
p7757
S'15179000'
p7758
S'18.73'
p7759
tp7760
sS'2008-01-09'
p7761
(S'171.30'
p7762
S'179.50'
p7763
S'168.30'
p7764
S'179.40'
p7765
S'64781500'
p7766
S'173.46'
p7767
tp7768
sS'2008-01-08'
p7769
(S'180.14'
p7770
S'182.46'
p7771
S'170.80'
p7772
S'171.25'
p7773
S'54422000'
p7774
S'165.58'
p7775
tp7776
sS'2006-03-29'
p7777
(S'59.13'
p7778
S'62.52'
p7779
S'57.67'
p7780
S'62.33'
p7781
S'83815500'
p7782
S'60.27'
p7783
tp7784
sS'2006-03-28'
p7785
(S'59.63'
p7786
S'60.14'
p7787
S'58.25'
p7788
S'58.71'
p7789
S'48940100'
p7790
S'56.77'
p7791
tp7792
sS'2005-05-09'
p7793
(S'37.28'
p7794
S'37.45'
p7795
S'36.75'
p7796
S'36.97'
p7797
S'12703400'
p7798
S'35.75'
p7799
tp7800
sS'2007-01-08'
p7801
(S'85.96'
p7802
S'86.53'
p7803
S'85.28'
p7804
S'85.47'
p7805
S'28468100'
p7806
S'82.64'
p7807
tp7808
sS'2007-01-09'
p7809
(S'86.45'
p7810
S'92.98'
p7811
S'85.15'
p7812
S'92.57'
p7813
S'119617800'
p7814
S'89.51'
p7815
tp7816
sS'2005-03-21'
p7817
(S'43.29'
p7818
S'43.97'
p7819
S'42.86'
p7820
S'43.70'
p7821
S'19326000'
p7822
S'42.25'
p7823
tp7824
sS'2005-03-22'
p7825
(S'43.71'
p7826
S'43.96'
p7827
S'42.68'
p7828
S'42.83'
p7829
S'19693400'
p7830
S'41.41'
p7831
tp7832
sS'2006-06-30'
p7833
(S'57.59'
p7834
S'57.75'
p7835
S'56.50'
p7836
S'57.27'
p7837
S'26417700'
p7838
S'55.37'
p7839
tp7840
sS'2007-01-03'
p7841
(S'86.29'
p7842
S'86.58'
p7843
S'81.90'
p7844
S'83.80'
p7845
S'44225700'
p7846
S'81.03'
p7847
tp7848
sS'2005-03-28'
p7849
(S'42.75'
p7850
S'42.96'
p7851
S'42.47'
p7852
S'42.53'
p7853
S'9836100'
p7854
S'41.12'
p7855
tp7856
sS'2005-03-29'
p7857
(S'42.56'
p7858
S'42.83'
p7859
S'41.50'
p7860
S'41.75'
p7861
S'16477000'
p7862
S'40.37'
p7863
tp7864
sS'2007-01-04'
p7865
(S'84.05'
p7866
S'85.95'
p7867
S'83.82'
p7868
S'85.66'
p7869
S'30259300'
p7870
S'82.83'
p7871
tp7872
sS'2007-01-05'
p7873
(S'85.77'
p7874
S'86.20'
p7875
S'84.40'
p7876
S'85.05'
p7877
S'29812200'
p7878
S'82.24'
p7879
tp7880
sS'2009-05-26'
p7881
(S'124.76'
p7882
S'130.83'
p7883
S'124.55'
p7884
S'130.78'
p7885
S'22747400'
p7886
S'126.45'
p7887
tp7888
sS'2009-05-27'
p7889
(S'131.78'
p7890
S'134.98'
p7891
S'130.91'
p7892
S'133.05'
p7893
S'23086500'
p7894
S'128.65'
p7895
tp7896
sS'2008-08-13'
p7897
(S'177.98'
p7898
S'180.00'
p7899
S'175.90'
p7900
S'179.30'
p7901
S'30083800'
p7902
S'173.37'
p7903
tp7904
sS'2008-08-12'
p7905
(S'173.52'
p7906
S'179.29'
p7907
S'173.51'
p7908
S'176.73'
p7909
S'29867100'
p7910
S'170.88'
p7911
tp7912
sS'2009-05-22'
p7913
(S'124.05'
p7914
S'124.18'
p7915
S'121.75'
p7916
S'122.50'
p7917
S'10642800'
p7918
S'118.45'
p7919
tp7920
sS'2008-08-14'
p7921
(S'178.33'
p7922
S'180.45'
p7923
S'177.84'
p7924
S'179.32'
p7925
S'25403600'
p7926
S'173.39'
p7927
tp7928
sS'2009-05-20'
p7929
(S'127.63'
p7930
S'129.21'
p7931
S'125.30'
p7932
S'125.87'
p7933
S'13878000'
p7934
S'121.70'
p7935
tp7936
sS'2009-05-21'
p7937
(S'125.15'
p7938
S'126.78'
p7939
S'122.89'
p7940
S'124.18'
p7941
S'14569500'
p7942
S'120.07'
p7943
tp7944
sS'2008-08-19'
p7945
(S'174.54'
p7946
S'177.07'
p7947
S'171.81'
p7948
S'173.53'
p7949
S'22007300'
p7950
S'167.79'
p7951
tp7952
sS'2008-08-18'
p7953
(S'175.57'
p7954
S'177.81'
p7955
S'173.82'
p7956
S'175.39'
p7957
S'19714800'
p7958
S'169.59'
p7959
tp7960
sS'2005-05-11'
p7961
(S'35.20'
p7962
S'35.67'
p7963
S'33.11'
p7964
S'35.61'
p7965
S'72927900'
p7966
S'34.43'
p7967
tp7968
sS'2009-05-28'
p7969
(S'133.45'
p7970
S'135.39'
p7971
S'132.03'
p7972
S'135.07'
p7973
S'17412600'
p7974
S'130.60'
p7975
tp7976
sS'2009-05-29'
p7977
(S'135.39'
p7978
S'135.90'
p7979
S'133.85'
p7980
S'135.81'
p7981
S'16304800'
p7982
S'131.32'
p7983
tp7984
sS'2008-03-14'
p7985
(S'129.88'
p7986
S'130.30'
p7987
S'124.20'
p7988
S'126.61'
p7989
S'41308600'
p7990
S'122.42'
p7991
tp7992
sS'2007-07-12'
p7993
(S'133.85'
p7994
S'134.24'
p7995
S'132.39'
p7996
S'134.07'
p7997
S'25164600'
p7998
S'129.63'
p7999
tp8000
sS'2007-07-11'
p8001
(S'132.07'
p8002
S'133.70'
p8003
S'131.31'
p8004
S'132.39'
p8005
S'29349000'
p8006
S'128.01'
p8007
tp8008
sS'2008-03-17'
p8009
(S'122.55'
p8010
S'128.59'
p8011
S'122.55'
p8012
S'126.73'
p8013
S'38307100'
p8014
S'122.54'
p8015
tp8016
sS'2008-05-30'
p8017
(S'187.45'
p8018
S'189.54'
p8019
S'187.38'
p8020
S'188.75'
p8021
S'21792300'
p8022
S'182.50'
p8023
tp8024
sS'2008-03-11'
p8025
(S'124.10'
p8026
S'127.48'
p8027
S'122.00'
p8028
S'127.35'
p8029
S'41569400'
p8030
S'123.14'
p8031
tp8032
sS'2008-03-12'
p8033
(S'127.04'
p8034
S'128.68'
p8035
S'125.17'
p8036
S'126.03'
p8037
S'37843900'
p8038
S'121.86'
p8039
tp8040
sS'2008-03-13'
p8041
(S'124.10'
p8042
S'129.50'
p8043
S'123.00'
p8044
S'127.94'
p8045
S'45075100'
p8046
S'123.71'
p8047
tp8048
sS'2005-05-17'
p8049
(S'35.14'
p8050
S'35.46'
p8051
S'34.54'
p8052
S'35.36'
p8053
S'21012300'
p8054
S'34.19'
p8055
tp8056
sS'2007-07-19'
p8057
(S'140.30'
p8058
S'140.81'
p8059
S'139.65'
p8060
S'140.00'
p8061
S'26174700'
p8062
S'135.37'
p8063
tp8064
sS'2007-07-18'
p8065
(S'138.19'
p8066
S'138.44'
p8067
S'136.04'
p8068
S'138.12'
p8069
S'27030600'
p8070
S'133.55'
p8071
tp8072
sS'2008-03-18'
p8073
(S'129.18'
p8074
S'133.00'
p8075
S'128.67'
p8076
S'132.82'
p8077
S'43040000'
p8078
S'128.42'
p8079
tp8080
sS'2008-03-19'
p8081
(S'133.12'
p8082
S'134.29'
p8083
S'129.67'
p8084
S'129.67'
p8085
S'36090600'
p8086
S'125.38'
p8087
tp8088
sS'2005-05-16'
p8089
(S'34.56'
p8090
S'35.70'
p8091
S'34.53'
p8092
S'35.55'
p8093
S'16939100'
p8094
S'34.37'
p8095
tp8096
sS'2005-06-09'
p8097
(S'37.00'
p8098
S'37.94'
p8099
S'36.82'
p8100
S'37.65'
p8101
S'13937700'
p8102
S'36.40'
p8103
tp8104
sS'2005-06-08'
p8105
(S'36.63'
p8106
S'37.25'
p8107
S'36.57'
p8108
S'36.92'
p8109
S'14428800'
p8110
S'35.70'
p8111
tp8112
sS'2008-09-09'
p8113
(S'156.86'
p8114
S'159.96'
p8115
S'149.79'
p8116
S'151.68'
p8117
S'44465200'
p8118
S'146.66'
p8119
tp8120
sS'2008-09-08'
p8121
(S'164.57'
p8122
S'164.89'
p8123
S'151.46'
p8124
S'157.92'
p8125
S'37356400'
p8126
S'152.69'
p8127
tp8128
sS'2008-09-05'
p8129
(S'158.59'
p8130
S'162.40'
p8131
S'157.65'
p8132
S'160.18'
p8133
S'28103000'
p8134
S'154.88'
p8135
tp8136
sS'2008-09-04'
p8137
(S'165.86'
p8138
S'167.91'
p8139
S'160.81'
p8140
S'161.22'
p8141
S'26549500'
p8142
S'155.88'
p8143
tp8144
sS'2005-09-01'
p8145
(S'47.00'
p8146
S'47.17'
p8147
S'46.09'
p8148
S'46.26'
p8149
S'12727400'
p8150
S'44.73'
p8151
tp8152
sS'2005-06-02'
p8153
(S'40.05'
p8154
S'40.32'
p8155
S'39.60'
p8156
S'40.04'
p8157
S'13356200'
p8158
S'38.71'
p8159
tp8160
sS'2006-09-21'
p8161
(S'75.25'
p8162
S'76.06'
p8163
S'74.02'
p8164
S'74.65'
p8165
S'28361600'
p8166
S'72.18'
p8167
tp8168
sS'2008-09-03'
p8169
(S'166.84'
p8170
S'168.68'
p8171
S'164.00'
p8172
S'166.96'
p8173
S'26244100'
p8174
S'161.43'
p8175
tp8176
sS'2008-09-02'
p8177
(S'172.40'
p8178
S'173.50'
p8179
S'165.00'
p8180
S'166.19'
p8181
S'27884400'
p8182
S'160.69'
p8183
tp8184
sS'2005-12-08'
p8185
(S'73.20'
p8186
S'74.17'
p8187
S'72.60'
p8188
S'74.08'
p8189
S'28231500'
p8190
S'71.63'
p8191
tp8192
sS'2005-12-09'
p8193
(S'74.21'
p8194
S'74.59'
p8195
S'73.35'
p8196
S'74.33'
p8197
S'19835800'
p8198
S'71.87'
p8199
tp8200
sS'2005-10-06'
p8201
(S'53.20'
p8202
S'53.49'
p8203
S'50.87'
p8204
S'51.70'
p8205
S'27054900'
p8206
S'49.99'
p8207
tp8208
sS'2006-03-21'
p8209
(S'64.29'
p8210
S'64.34'
p8211
S'61.39'
p8212
S'61.81'
p8213
S'47991700'
p8214
S'59.76'
p8215
tp8216
sS'2005-10-04'
p8217
(S'54.95'
p8218
S'55.35'
p8219
S'53.64'
p8220
S'53.75'
p8221
S'19266400'
p8222
S'51.97'
p8223
tp8224
sS'2007-02-15'
p8225
(S'85.44'
p8226
S'85.62'
p8227
S'84.78'
p8228
S'85.21'
p8229
S'12987900'
p8230
S'82.39'
p8231
tp8232
sS'2005-12-01'
p8233
(S'68.95'
p8234
S'71.73'
p8235
S'68.81'
p8236
S'71.60'
p8237
S'29031900'
p8238
S'69.23'
p8239
tp8240
sS'2005-12-02'
p8241
(S'72.27'
p8242
S'72.74'
p8243
S'70.70'
p8244
S'72.63'
p8245
S'31991500'
p8246
S'70.23'
p8247
tp8248
sS'2008-01-02'
p8249
(S'199.27'
p8250
S'200.26'
p8251
S'192.55'
p8252
S'194.84'
p8253
S'38542100'
p8254
S'188.39'
p8255
tp8256
sS'2005-04-08'
p8257
(S'43.70'
p8258
S'44.45'
p8259
S'43.54'
p8260
S'43.74'
p8261
S'23212500'
p8262
S'42.29'
p8263
tp8264
sS'2005-12-05'
p8265
(S'71.95'
p8266
S'72.53'
p8267
S'71.49'
p8268
S'71.82'
p8269
S'20845400'
p8270
S'69.44'
p8271
tp8272
sS'2005-12-06'
p8273
(S'73.93'
p8274
S'74.83'
p8275
S'73.35'
p8276
S'74.05'
p8277
S'30608200'
p8278
S'71.60'
p8279
tp8280
sS'2005-12-07'
p8281
(S'74.23'
p8282
S'74.46'
p8283
S'73.12'
p8284
S'73.95'
p8285
S'24266600'
p8286
S'71.50'
p8287
tp8288
sS'2008-07-07'
p8289
(S'173.16'
p8290
S'177.13'
p8291
S'171.90'
p8292
S'175.16'
p8293
S'29299700'
p8294
S'169.36'
p8295
tp8296
sS'2008-07-03'
p8297
(S'169.59'
p8298
S'172.17'
p8299
S'165.75'
p8300
S'170.12'
p8301
S'18691500'
p8302
S'164.49'
p8303
tp8304
sS'2008-07-02'
p8305
(S'175.20'
p8306
S'177.45'
p8307
S'168.18'
p8308
S'168.18'
p8309
S'29911400'
p8310
S'162.61'
p8311
tp8312
sS'2008-07-01'
p8313
(S'164.23'
p8314
S'174.72'
p8315
S'164.00'
p8316
S'174.68'
p8317
S'39688600'
p8318
S'168.90'
p8319
tp8320
sS'2007-09-05'
p8321
(S'144.97'
p8322
S'145.84'
p8323
S'136.10'
p8324
S'136.76'
p8325
S'83150800'
p8326
S'132.23'
p8327
tp8328
sS'2005-11-09'
p8329
(S'60.00'
p8330
S'61.21'
p8331
S'60.00'
p8332
S'60.11'
p8333
S'19747500'
p8334
S'58.12'
p8335
tp8336
sS'2006-06-01'
p8337
(S'59.85'
p8338
S'62.28'
p8339
S'59.52'
p8340
S'62.17'
p8341
S'33661000'
p8342
S'60.11'
p8343
tp8344
sS'2008-07-09'
p8345
(S'180.20'
p8346
S'180.91'
p8347
S'174.14'
p8348
S'174.25'
p8349
S'31992000'
p8350
S'168.48'
p8351
tp8352
sS'2008-07-08'
p8353
(S'175.40'
p8354
S'179.70'
p8355
S'172.74'
p8356
S'179.55'
p8357
S'31726800'
p8358
S'173.61'
p8359
tp8360
sS'2007-02-21'
p8361
(S'85.98'
p8362
S'89.49'
p8363
S'85.96'
p8364
S'89.20'
p8365
S'41261200'
p8366
S'86.25'
p8367
tp8368
sS'2007-02-20'
p8369
(S'84.65'
p8370
S'86.16'
p8371
S'84.16'
p8372
S'85.90'
p8373
S'22060800'
p8374
S'83.06'
p8375
tp8376
sS'2007-04-03'
p8377
(S'94.14'
p8378
S'95.23'
p8379
S'93.76'
p8380
S'94.50'
p8381
S'20854800'
p8382
S'91.37'
p8383
tp8384
sS'2007-04-02'
p8385
(S'94.14'
p8386
S'94.25'
p8387
S'93.02'
p8388
S'93.65'
p8389
S'17928300'
p8390
S'90.55'
p8391
tp8392
sS'2007-04-05'
p8393
(S'94.12'
p8394
S'94.68'
p8395
S'93.52'
p8396
S'94.68'
p8397
S'12697000'
p8398
S'91.55'
p8399
tp8400
sS'2007-04-04'
p8401
(S'94.94'
p8402
S'95.14'
p8403
S'94.13'
p8404
S'94.27'
p8405
S'17028000'
p8406
S'91.15'
p8407
tp8408
sS'2007-02-27'
p8409
(S'86.30'
p8410
S'87.08'
p8411
S'83.41'
p8412
S'83.93'
p8413
S'40921900'
p8414
S'81.15'
p8415
tp8416
sS'2007-02-26'
p8417
(S'89.84'
p8418
S'90.00'
p8419
S'87.61'
p8420
S'88.51'
p8421
S'21994600'
p8422
S'85.58'
p8423
tp8424
sS'2007-04-09'
p8425
(S'95.21'
p8426
S'95.30'
p8427
S'93.04'
p8428
S'93.65'
p8429
S'14762200'
p8430
S'90.55'
p8431
tp8432
sS'2007-02-28'
p8433
(S'83.00'
p8434
S'85.60'
p8435
S'83.00'
p8436
S'84.61'
p8437
S'32838400'
p8438
S'81.81'
p8439
tp8440
sS'2005-11-14'
p8441
(S'61.54'
p8442
S'61.98'
p8443
S'60.91'
p8444
S'61.45'
p8445
S'13211900'
p8446
S'59.42'
p8447
tp8448
sS'2005-11-15'
p8449
(S'61.60'
p8450
S'63.08'
p8451
S'61.46'
p8452
S'62.28'
p8453
S'19172900'
p8454
S'60.22'
p8455
tp8456
sS'2005-04-14'
p8457
(S'38.81'
p8458
S'39.56'
p8459
S'36.84'
p8460
S'37.26'
p8461
S'98328300'
p8462
S'36.03'
p8463
tp8464
sS'2005-06-16'
p8465
(S'37.19'
p8466
S'38.08'
p8467
S'36.82'
p8468
S'37.98'
p8469
S'19559800'
p8470
S'36.72'
p8471
tp8472
sS'2005-11-10'
p8473
(S'60.64'
p8474
S'61.20'
p8475
S'59.01'
p8476
S'61.18'
p8477
S'23762300'
p8478
S'59.16'
p8479
tp8480
sS'2005-11-11'
p8481
(S'61.54'
p8482
S'62.11'
p8483
S'61.34'
p8484
S'61.54'
p8485
S'15194600'
p8486
S'59.50'
p8487
tp8488
sS'2005-10-14'
p8489
(S'54.03'
p8490
S'54.35'
p8491
S'52.79'
p8492
S'54.00'
p8493
S'36984000'
p8494
S'52.21'
p8495
tp8496
sS'2005-04-06'
p8497
(S'42.40'
p8498
S'42.81'
p8499
S'42.15'
p8500
S'42.33'
p8501
S'14815200'
p8502
S'40.93'
p8503
tp8504
sS'2007-08-16'
p8505
(S'117.01'
p8506
S'118.50'
p8507
S'111.62'
p8508
S'117.05'
p8509
S'66667500'
p8510
S'113.18'
p8511
tp8512
sS'2007-08-17'
p8513
(S'122.01'
p8514
S'123.50'
p8515
S'119.82'
p8516
S'122.06'
p8517
S'42680800'
p8518
S'118.02'
p8519
tp8520
sS'2007-08-14'
p8521
(S'128.29'
p8522
S'128.30'
p8523
S'123.71'
p8524
S'124.03'
p8525
S'26393100'
p8526
S'119.93'
p8527
tp8528
sS'2007-08-15'
p8529
(S'122.74'
p8530
S'124.86'
p8531
S'119.65'
p8532
S'119.90'
p8533
S'35459000'
p8534
S'115.93'
p8535
tp8536
sS'2004-12-16'
p8537
(S'66.15'
p8538
S'67.50'
p8539
S'66.05'
p8540
S'66.60'
p8541
S'40218400'
p8542
S'32.20'
p8543
tp8544
sS'2007-08-13'
p8545
(S'128.32'
p8546
S'129.35'
p8547
S'126.50'
p8548
S'127.79'
p8549
S'26889700'
p8550
S'123.56'
p8551
tp8552
sS'2007-08-10'
p8553
(S'123.12'
p8554
S'127.75'
p8555
S'120.30'
p8556
S'125.00'
p8557
S'50383900'
p8558
S'120.86'
p8559
tp8560
sS'2004-12-15'
p8561
(S'65.24'
p8562
S'65.46'
p8563
S'64.66'
p8564
S'65.26'
p8565
S'14227200'
p8566
S'31.55'
p8567
tp8568
sS'2005-03-24'
p8569
(S'42.91'
p8570
S'43.00'
p8571
S'42.50'
p8572
S'42.50'
p8573
S'12596600'
p8574
S'41.09'
p8575
tp8576
sS'2005-09-20'
p8577
(S'52.99'
p8578
S'53.81'
p8579
S'52.92'
p8580
S'53.19'
p8581
S'29279600'
p8582
S'51.43'
p8583
tp8584
sS'2006-10-30'
p8585
(S'79.99'
p8586
S'80.90'
p8587
S'79.50'
p8588
S'80.42'
p8589
S'17854200'
p8590
S'77.76'
p8591
tp8592
sS'2006-10-31'
p8593
(S'81.45'
p8594
S'81.68'
p8595
S'80.23'
p8596
S'81.08'
p8597
S'17909800'
p8598
S'78.40'
p8599
tp8600
sS'2007-06-11'
p8601
(S'126.00'
p8602
S'126.15'
p8603
S'119.54'
p8604
S'120.19'
p8605
S'66937800'
p8606
S'116.21'
p8607
tp8608
sS'2007-06-12'
p8609
(S'119.35'
p8610
S'121.71'
p8611
S'118.31'
p8612
S'120.38'
p8613
S'50948800'
p8614
S'116.40'
p8615
tp8616
sS'2007-06-13'
p8617
(S'121.15'
p8618
S'121.19'
p8619
S'115.40'
p8620
S'117.50'
p8621
S'61476900'
p8622
S'113.61'
p8623
tp8624
sS'2007-06-14'
p8625
(S'117.20'
p8626
S'119.45'
p8627
S'116.42'
p8628
S'118.75'
p8629
S'34759500'
p8630
S'114.82'
p8631
tp8632
sS'2007-06-15'
p8633
(S'120.62'
p8634
S'120.67'
p8635
S'119.86'
p8636
S'120.50'
p8637
S'28972100'
p8638
S'116.51'
p8639
tp8640
sS'2009-04-14'
p8641
(S'119.57'
p8642
S'120.17'
p8643
S'117.25'
p8644
S'118.31'
p8645
S'16236500'
p8646
S'114.39'
p8647
tp8648
sS'2009-04-15'
p8649
(S'117.20'
p8650
S'118.25'
p8651
S'115.76'
p8652
S'117.64'
p8653
S'14745800'
p8654
S'113.75'
p8655
tp8656
sS'2009-04-16'
p8657
(S'119.19'
p8658
S'123.15'
p8659
S'118.79'
p8660
S'121.45'
p8661
S'21194500'
p8662
S'117.43'
p8663
tp8664
sS'2009-04-17'
p8665
(S'121.18'
p8666
S'124.25'
p8667
S'120.25'
p8668
S'123.42'
p8669
S'17767700'
p8670
S'119.34'
p8671
tp8672
sS'2009-04-13'
p8673
(S'120.01'
p8674
S'120.98'
p8675
S'119.00'
p8676
S'120.22'
p8677
S'13901300'
p8678
S'116.24'
p8679
tp8680
sS'2004-12-09'
p8681
(S'62.81'
p8682
S'64.40'
p8683
S'62.07'
p8684
S'63.99'
p8685
S'26482200'
p8686
S'30.94'
p8687
tp8688
sS'2006-01-20'
p8689
(S'79.28'
p8690
S'80.04'
p8691
S'75.83'
p8692
S'76.09'
p8693
S'40527100'
p8694
S'73.57'
p8695
tp8696
sS'2006-01-23'
p8697
(S'76.10'
p8698
S'79.56'
p8699
S'76.00'
p8700
S'77.67'
p8701
S'37847500'
p8702
S'75.10'
p8703
tp8704
sS'2005-03-23'
p8705
(S'42.45'
p8706
S'43.40'
p8707
S'42.02'
p8708
S'42.55'
p8709
S'21779400'
p8710
S'41.14'
p8711
tp8712
sS'2006-01-25'
p8713
(S'77.39'
p8714
S'77.50'
p8715
S'73.25'
p8716
S'74.20'
p8717
S'45563800'
p8718
S'71.74'
p8719
tp8720
sS'2006-01-24'
p8721
(S'78.76'
p8722
S'79.42'
p8723
S'75.77'
p8724
S'76.04'
p8725
S'40794800'
p8726
S'73.52'
p8727
tp8728
sS'2006-01-27'
p8729
(S'72.95'
p8730
S'73.60'
p8731
S'71.10'
p8732
S'72.03'
p8733
S'34066600'
p8734
S'69.65'
p8735
tp8736
sS'2006-01-26'
p8737
(S'74.53'
p8738
S'75.43'
p8739
S'71.93'
p8740
S'72.33'
p8741
S'42192400'
p8742
S'69.94'
p8743
tp8744
sS'2004-10-25'
p8745
(S'47.20'
p8746
S'47.84'
p8747
S'47.07'
p8748
S'47.55'
p8749
S'14023000'
p8750
S'22.99'
p8751
tp8752
sS'2007-10-19'
p8753
(S'174.24'
p8754
S'174.63'
p8755
S'170.00'
p8756
S'170.42'
p8757
S'46135000'
p8758
S'164.78'
p8759
tp8760
sS'2007-10-18'
p8761
(S'171.50'
p8762
S'174.19'
p8763
S'171.05'
p8764
S'173.50'
p8765
S'29417000'
p8766
S'167.76'
p8767
tp8768
sS'2005-07-19'
p8769
(S'41.52'
p8770
S'43.23'
p8771
S'41.07'
p8772
S'43.19'
p8773
S'23966500'
p8774
S'41.76'
p8775
tp8776
sS'2005-07-18'
p8777
(S'41.41'
p8778
S'42.10'
p8779
S'41.37'
p8780
S'41.49'
p8781
S'20939200'
p8782
S'40.12'
p8783
tp8784
sS'2004-10-22'
p8785
(S'47.54'
p8786
S'47.67'
p8787
S'47.02'
p8788
S'47.41'
p8789
S'17252400'
p8790
S'22.92'
p8791
tp8792
sS'2005-07-15'
p8793
(S'40.97'
p8794
S'41.57'
p8795
S'40.46'
p8796
S'41.55'
p8797
S'24560100'
p8798
S'40.18'
p8799
tp8800
sS'2007-10-12'
p8801
(S'163.01'
p8802
S'167.28'
p8803
S'161.80'
p8804
S'167.25'
p8805
S'35292000'
p8806
S'161.72'
p8807
tp8808
sS'2007-10-11'
p8809
(S'169.49'
p8810
S'171.88'
p8811
S'153.21'
p8812
S'162.23'
p8813
S'58714000'
p8814
S'156.86'
p8815
tp8816
sS'2007-10-10'
p8817
(S'167.55'
p8818
S'167.88'
p8819
S'165.60'
p8820
S'166.79'
p8821
S'23842500'
p8822
S'161.27'
p8823
tp8824
sS'2007-10-17'
p8825
(S'172.69'
p8826
S'173.04'
p8827
S'169.18'
p8828
S'172.75'
p8829
S'40271900'
p8830
S'167.03'
p8831
tp8832
sS'2007-10-16'
p8833
(S'165.54'
p8834
S'170.18'
p8835
S'165.15'
p8836
S'169.58'
p8837
S'38136800'
p8838
S'163.97'
p8839
tp8840
sS'2007-10-15'
p8841
(S'167.98'
p8842
S'169.57'
p8843
S'163.50'
p8844
S'166.98'
p8845
S'38497500'
p8846
S'161.45'
p8847
tp8848
sS'2005-07-12'
p8849
(S'38.23'
p8850
S'38.40'
p8851
S'37.91'
p8852
S'38.24'
p8853
S'13822800'
p8854
S'36.97'
p8855
tp8856
sS'2006-07-18'
p8857
(S'53.16'
p8858
S'53.85'
p8859
S'51.85'
p8860
S'52.90'
p8861
S'35730300'
p8862
S'51.15'
p8863
tp8864
sS'2006-07-19'
p8865
(S'52.96'
p8866
S'55.08'
p8867
S'52.36'
p8868
S'54.10'
p8869
S'49669400'
p8870
S'52.31'
p8871
tp8872
sS'2004-09-01'
p8873
(S'34.30'
p8874
S'35.99'
p8875
S'34.19'
p8876
S'35.86'
p8877
S'18418800'
p8878
S'17.34'
p8879
tp8880
sS'2006-07-12'
p8881
(S'55.17'
p8882
S'55.24'
p8883
S'52.92'
p8884
S'52.96'
p8885
S'33118900'
p8886
S'51.21'
p8887
tp8888
sS'2006-07-13'
p8889
(S'52.03'
p8890
S'54.12'
p8891
S'51.41'
p8892
S'52.25'
p8893
S'44639500'
p8894
S'50.52'
p8895
tp8896
sS'2006-07-10'
p8897
(S'55.70'
p8898
S'56.49'
p8899
S'54.50'
p8900
S'55.00'
p8901
S'18905200'
p8902
S'53.18'
p8903
tp8904
sS'2006-07-11'
p8905
(S'55.11'
p8906
S'55.99'
p8907
S'54.53'
p8908
S'55.65'
p8909
S'29465100'
p8910
S'53.81'
p8911
tp8912
sS'2004-09-27'
p8913
(S'36.95'
p8914
S'37.98'
p8915
S'36.83'
p8916
S'37.53'
p8917
S'14197000'
p8918
S'18.14'
p8919
tp8920
sS'2006-07-17'
p8921
(S'51.73'
p8922
S'53.11'
p8923
S'51.65'
p8924
S'52.37'
p8925
S'36590800'
p8926
S'50.64'
p8927
tp8928
sS'2006-07-14'
p8929
(S'52.50'
p8930
S'52.89'
p8931
S'50.16'
p8932
S'50.67'
p8933
S'35465600'
p8934
S'48.99'
p8935
tp8936
sS'2004-10-14'
p8937
(S'43.19'
p8938
S'45.75'
p8939
S'42.55'
p8940
S'44.98'
p8941
S'98872400'
p8942
S'21.75'
p8943
tp8944
sS'2004-10-29'
p8945
(S'51.84'
p8946
S'53.20'
p8947
S'51.80'
p8948
S'52.40'
p8949
S'28936400'
p8950
S'25.33'
p8951
tp8952
sS'2007-03-16'
p8953
(S'89.54'
p8954
S'89.99'
p8955
S'89.32'
p8956
S'89.59'
p8957
S'20418000'
p8958
S'86.63'
p8959
tp8960
sS'2007-03-15'
p8961
(S'89.96'
p8962
S'90.36'
p8963
S'89.31'
p8964
S'89.57'
p8965
S'19982100'
p8966
S'86.61'
p8967
tp8968
sS'2007-03-14'
p8969
(S'88.60'
p8970
S'90.00'
p8971
S'87.92'
p8972
S'90.00'
p8973
S'28449500'
p8974
S'87.02'
p8975
tp8976
sS'2007-12-19'
p8977
(S'182.98'
p8978
S'184.64'
p8979
S'180.90'
p8980
S'183.12'
p8981
S'29552800'
p8982
S'177.06'
p8983
tp8984
sS'2007-12-18'
p8985
(S'186.52'
p8986
S'187.33'
p8987
S'178.60'
p8988
S'182.98'
p8989
S'43664400'
p8990
S'176.92'
p8991
tp8992
sS'2007-12-14'
p8993
(S'190.37'
p8994
S'193.20'
p8995
S'189.54'
p8996
S'190.39'
p8997
S'24082600'
p8998
S'184.09'
p8999
tp9000
sS'2007-12-17'
p9001
(S'190.72'
p9002
S'192.65'
p9003
S'182.98'
p9004
S'184.40'
p9005
S'36596200'
p9006
S'178.30'
p9007
tp9008
sS'2007-12-11'
p9009
(S'194.75'
p9010
S'196.83'
p9011
S'187.39'
p9012
S'188.54'
p9013
S'39675900'
p9014
S'182.30'
p9015
tp9016
sS'2007-12-10'
p9017
(S'193.59'
p9018
S'195.66'
p9019
S'192.69'
p9020
S'194.21'
p9021
S'25799200'
p9022
S'187.78'
p9023
tp9024
sS'2007-12-13'
p9025
(S'190.19'
p9026
S'192.12'
p9027
S'187.82'
p9028
S'191.83'
p9029
S'30879200'
p9030
S'185.48'
p9031
tp9032
sS'2007-12-12'
p9033
(S'193.44'
p9034
S'194.48'
p9035
S'185.76'
p9036
S'190.86'
p9037
S'43773600'
p9038
S'184.54'
p9039
tp9040
sS'2009-01-22'
p9041
(S'88.04'
p9042
S'90.00'
p9043
S'85.82'
p9044
S'88.36'
p9045
S'50340300'
p9046
S'85.44'
p9047
tp9048
sS'2009-01-23'
p9049
(S'86.82'
p9050
S'89.87'
p9051
S'86.50'
p9052
S'88.36'
p9053
S'27277500'
p9054
S'85.44'
p9055
tp9056
sS'2009-01-20'
p9057
(S'81.93'
p9058
S'82.00'
p9059
S'78.20'
p9060
S'78.20'
p9061
S'32854100'
p9062
S'75.61'
p9063
tp9064
sS'2009-01-21'
p9065
(S'79.39'
p9066
S'82.88'
p9067
S'79.31'
p9068
S'82.83'
p9069
S'38902500'
p9070
S'80.09'
p9071
tp9072
sS'2009-01-26'
p9073
(S'88.86'
p9074
S'90.97'
p9075
S'88.30'
p9076
S'89.64'
p9077
S'24722800'
p9078
S'86.67'
p9079
tp9080
sS'2009-01-27'
p9081
(S'90.19'
p9082
S'91.55'
p9083
S'89.74'
p9084
S'90.73'
p9085
S'22072800'
p9086
S'87.73'
p9087
tp9088
sS'2009-01-28'
p9089
(S'92.12'
p9090
S'95.00'
p9091
S'91.50'
p9092
S'94.20'
p9093
S'30764500'
p9094
S'91.08'
p9095
tp9096
sS'2009-01-29'
p9097
(S'93.09'
p9098
S'94.34'
p9099
S'92.60'
p9100
S'93.00'
p9101
S'21168900'
p9102
S'89.92'
p9103
tp9104
sS'2008-12-16'
p9105
(S'93.98'
p9106
S'96.48'
p9107
S'92.75'
p9108
S'95.43'
p9109
S'39053800'
p9110
S'92.27'
p9111
tp9112
sS'2008-12-17'
p9113
(S'91.03'
p9114
S'91.10'
p9115
S'88.02'
p9116
S'89.16'
p9117
S'46209300'
p9118
S'86.21'
p9119
tp9120
sS'2008-12-15'
p9121
(S'95.99'
p9122
S'96.21'
p9123
S'93.00'
p9124
S'94.75'
p9125
S'31848500'
p9126
S'91.61'
p9127
tp9128
sS'2008-12-12'
p9129
(S'92.80'
p9130
S'99.00'
p9131
S'92.53'
p9132
S'98.27'
p9133
S'37184800'
p9134
S'95.02'
p9135
tp9136
sS'2004-12-07'
p9137
(S'65.93'
p9138
S'66.73'
p9139
S'62.56'
p9140
S'62.89'
p9141
S'37746400'
p9142
S'30.40'
p9143
tp9144
sS'2008-12-10'
p9145
(S'97.87'
p9146
S'99.49'
p9147
S'96.50'
p9148
S'98.21'
p9149
S'33501700'
p9150
S'94.96'
p9151
tp9152
sS'2008-12-11'
p9153
(S'97.35'
p9154
S'101.24'
p9155
S'94.83'
p9156
S'95.00'
p9157
S'37164900'
p9158
S'91.86'
p9159
tp9160
sS'2008-08-15'
p9161
(S'179.04'
p9162
S'179.75'
p9163
S'175.05'
p9164
S'175.74'
p9165
S'25294700'
p9166
S'169.92'
p9167
tp9168
sS'2008-03-25'
p9169
(S'139.96'
p9170
S'143.10'
p9171
S'137.33'
p9172
S'140.98'
p9173
S'37585400'
p9174
S'136.31'
p9175
tp9176
sS'2004-12-06'
p9177
(S'64.25'
p9178
S'66.24'
p9179
S'62.95'
p9180
S'65.78'
p9181
S'44568600'
p9182
S'31.80'
p9183
tp9184
sS'2008-12-18'
p9185
(S'89.31'
p9186
S'90.83'
p9187
S'88.44'
p9188
S'89.43'
p9189
S'30622000'
p9190
S'86.47'
p9191
tp9192
sS'2008-12-19'
p9193
(S'89.94'
p9194
S'90.94'
p9195
S'88.80'
p9196
S'90.00'
p9197
S'28640000'
p9198
S'87.02'
p9199
tp9200
sS'2006-11-20'
p9201
(S'85.40'
p9202
S'87.00'
p9203
S'85.20'
p9204
S'86.47'
p9205
S'20385500'
p9206
S'83.61'
p9207
tp9208
sS'2006-11-21'
p9209
(S'87.42'
p9210
S'88.60'
p9211
S'87.11'
p9212
S'88.60'
p9213
S'22238100'
p9214
S'85.67'
p9215
tp9216
sS'2006-11-22'
p9217
(S'88.99'
p9218
S'90.75'
p9219
S'87.85'
p9220
S'90.31'
p9221
S'23997900'
p9222
S'87.32'
p9223
tp9224
sS'2006-05-26'
p9225
(S'64.31'
p9226
S'64.56'
p9227
S'63.14'
p9228
S'63.55'
p9229
S'15462500'
p9230
S'61.45'
p9231
tp9232
sS'2006-11-24'
p9233
(S'89.53'
p9234
S'93.08'
p9235
S'89.50'
p9236
S'91.63'
p9237
S'18524200'
p9238
S'88.60'
p9239
tp9240
sS'2005-02-08'
p9241
(S'79.07'
p9242
S'81.38'
p9243
S'78.79'
p9244
S'80.90'
p9245
S'31786400'
p9246
S'39.11'
p9247
tp9248
sS'2006-05-23'
p9249
(S'64.86'
p9250
S'65.19'
p9251
S'63.00'
p9252
S'63.15'
p9253
S'24800500'
p9254
S'61.06'
p9255
tp9256
sS'2006-11-27'
p9257
(S'92.51'
p9258
S'93.16'
p9259
S'89.50'
p9260
S'89.54'
p9261
S'38387000'
p9262
S'86.58'
p9263
tp9264
sS'2006-11-28'
p9265
(S'90.36'
p9266
S'91.97'
p9267
S'89.91'
p9268
S'91.81'
p9269
S'37006200'
p9270
S'88.77'
p9271
tp9272
sS'2006-11-29'
p9273
(S'93.00'
p9274
S'93.15'
p9275
S'90.25'
p9276
S'91.80'
p9277
S'41324400'
p9278
S'88.76'
p9279
tp9280
sS'2006-02-02'
p9281
(S'75.10'
p9282
S'75.36'
p9283
S'72.05'
p9284
S'72.10'
p9285
S'25261500'
p9286
S'69.71'
p9287
tp9288
sS'2006-02-03'
p9289
(S'72.24'
p9290
S'72.79'
p9291
S'71.04'
p9292
S'71.85'
p9293
S'24718700'
p9294
S'69.47'
p9295
tp9296
sS'2004-11-19'
p9297
(S'55.49'
p9298
S'56.91'
p9299
S'54.50'
p9300
S'55.17'
p9301
S'27331400'
p9302
S'26.67'
p9303
tp9304
sS'2006-02-01'
p9305
(S'74.95'
p9306
S'76.46'
p9307
S'74.64'
p9308
S'75.42'
p9309
S'18613800'
p9310
S'72.92'
p9311
tp9312
sS'2006-02-06'
p9313
(S'72.02'
p9314
S'72.51'
p9315
S'66.74'
p9316
S'67.30'
p9317
S'58991700'
p9318
S'65.07'
p9319
tp9320
sS'2006-02-07'
p9321
(S'68.27'
p9322
S'69.48'
p9323
S'66.68'
p9324
S'67.60'
p9325
S'49601100'
p9326
S'65.36'
p9327
tp9328
sS'2004-11-12'
p9329
(S'55.01'
p9330
S'55.69'
p9331
S'54.84'
p9332
S'55.50'
p9333
S'14132200'
p9334
S'26.83'
p9335
tp9336
sS'2008-08-11'
p9337
(S'170.07'
p9338
S'176.50'
p9339
S'169.67'
p9340
S'173.56'
p9341
S'31832300'
p9342
S'167.82'
p9343
tp9344
sS'2006-02-09'
p9345
(S'69.10'
p9346
S'69.23'
p9347
S'64.53'
p9348
S'64.95'
p9349
S'41063000'
p9350
S'62.80'
p9351
tp9352
sS'2005-01-14'
p9353
(S'70.25'
p9354
S'71.72'
p9355
S'69.19'
p9356
S'70.20'
p9357
S'63240800'
p9358
S'33.94'
p9359
tp9360
sS'2004-11-16'
p9361
(S'55.16'
p9362
S'55.20'
p9363
S'54.48'
p9364
S'54.94'
p9365
S'10539400'
p9366
S'26.56'
p9367
tp9368
sS'2007-05-31'
p9369
(S'120.07'
p9370
S'122.17'
p9371
S'119.54'
p9372
S'121.19'
p9373
S'46323800'
p9374
S'117.18'
p9375
tp9376
sS'2007-05-30'
p9377
(S'114.30'
p9378
S'118.88'
p9379
S'113.53'
p9380
S'118.77'
p9381
S'52801600'
p9382
S'114.84'
p9383
tp9384
sS'2009-06-30'
p9385
(S'142.58'
p9386
S'143.80'
p9387
S'141.80'
p9388
S'142.43'
p9389
S'15508000'
p9390
S'137.72'
p9391
tp9392
sS'2008-10-20'
p9393
(S'99.78'
p9394
S'100.03'
p9395
S'93.64'
p9396
S'98.44'
p9397
S'55280200'
p9398
S'95.18'
p9399
tp9400
sS'2008-10-23'
p9401
(S'96.51'
p9402
S'99.25'
p9403
S'91.90'
p9404
S'98.23'
p9405
S'59836800'
p9406
S'94.98'
p9407
tp9408
sS'2008-10-22'
p9409
(S'97.37'
p9410
S'101.25'
p9411
S'92.93'
p9412
S'96.87'
p9413
S'80314600'
p9414
S'93.66'
p9415
tp9416
sS'2006-09-25'
p9417
(S'73.81'
p9418
S'75.86'
p9419
S'73.72'
p9420
S'75.75'
p9421
S'30678300'
p9422
S'73.24'
p9423
tp9424
sS'2008-10-24'
p9425
(S'90.33'
p9426
S'97.90'
p9427
S'90.11'
p9428
S'96.38'
p9429
S'56787800'
p9430
S'93.19'
p9431
tp9432
sS'2008-10-27'
p9433
(S'95.07'
p9434
S'97.63'
p9435
S'91.86'
p9436
S'92.09'
p9437
S'43170400'
p9438
S'89.04'
p9439
tp9440
sS'2006-09-26'
p9441
(S'76.18'
p9442
S'77.78'
p9443
S'76.10'
p9444
S'77.61'
p9445
S'39391000'
p9446
S'75.04'
p9447
tp9448
sS'2008-10-29'
p9449
(S'100.86'
p9450
S'109.54'
p9451
S'99.94'
p9452
S'104.55'
p9453
S'69677800'
p9454
S'101.09'
p9455
tp9456
sS'2008-06-30'
p9457
(S'170.19'
p9458
S'172.00'
p9459
S'166.62'
p9460
S'167.44'
p9461
S'24435600'
p9462
S'161.90'
p9463
tp9464
sS'2005-02-25'
p9465
(S'89.62'
p9466
S'89.91'
p9467
S'88.19'
p9468
S'88.99'
p9469
S'32696800'
p9470
S'43.02'
p9471
tp9472
sS'2006-05-31'
p9473
(S'61.76'
p9474
S'61.79'
p9475
S'58.69'
p9476
S'59.77'
p9477
S'45749200'
p9478
S'57.79'
p9479
tp9480
sS'2009-02-09'
p9481
(S'100.00'
p9482
S'103.00'
p9483
S'99.50'
p9484
S'102.51'
p9485
S'25536100'
p9486
S'99.12'
p9487
tp9488
sS'2006-12-08'
p9489
(S'87.23'
p9490
S'89.39'
p9491
S'87.00'
p9492
S'88.26'
p9493
S'28009900'
p9494
S'85.34'
p9495
tp9496
sS'2006-12-07'
p9497
(S'90.03'
p9498
S'90.50'
p9499
S'86.90'
p9500
S'87.04'
p9501
S'35886700'
p9502
S'84.16'
p9503
tp9504
sS'2006-12-06'
p9505
(S'90.64'
p9506
S'91.39'
p9507
S'89.67'
p9508
S'89.83'
p9509
S'22792300'
p9510
S'86.86'
p9511
tp9512
sS'2009-02-03'
p9513
(S'91.92'
p9514
S'93.38'
p9515
S'90.28'
p9516
S'92.98'
p9517
S'21403900'
p9518
S'89.90'
p9519
tp9520
sS'2009-02-02'
p9521
(S'89.10'
p9522
S'92.00'
p9523
S'88.90'
p9524
S'91.51'
p9525
S'19937400'
p9526
S'88.48'
p9527
tp9528
sS'2009-02-05'
p9529
(S'92.77'
p9530
S'97.25'
p9531
S'92.62'
p9532
S'96.46'
p9533
S'26758800'
p9534
S'93.27'
p9535
tp9536
sS'2009-02-04'
p9537
(S'93.22'
p9538
S'96.25'
p9539
S'93.10'
p9540
S'93.55'
p9541
S'28872200'
p9542
S'90.45'
p9543
tp9544
sS'2006-12-01'
p9545
(S'91.80'
p9546
S'92.33'
p9547
S'90.10'
p9548
S'91.32'
p9549
S'28395700'
p9550
S'88.30'
p9551
tp9552
sS'2009-02-06'
p9553
(S'97.02'
p9554
S'100.00'
p9555
S'97.00'
p9556
S'99.72'
p9557
S'24543200'
p9558
S'96.42'
p9559
tp9560
sS'2007-07-13'
p9561
(S'135.03'
p9562
S'137.85'
p9563
S'134.52'
p9564
S'137.73'
p9565
S'32414500'
p9566
S'133.17'
p9567
tp9568
sS'2006-11-16'
p9569
(S'84.87'
p9570
S'86.30'
p9571
S'84.62'
p9572
S'85.61'
p9573
S'24783600'
p9574
S'82.78'
p9575
tp9576
sS'2006-06-08'
p9577
(S'58.44'
p9578
S'60.93'
p9579
S'57.15'
p9580
S'60.76'
p9581
S'49910100'
p9582
S'58.75'
p9583
tp9584
sS'2006-06-09'
p9585
(S'61.18'
p9586
S'61.56'
p9587
S'59.10'
p9588
S'59.24'
p9589
S'27708500'
p9590
S'57.28'
p9591
tp9592
sS'2006-06-06'
p9593
(S'60.22'
p9594
S'60.63'
p9595
S'58.91'
p9596
S'59.72'
p9597
S'25929900'
p9598
S'57.74'
p9599
tp9600
sS'2006-06-07'
p9601
(S'60.10'
p9602
S'60.40'
p9603
S'58.35'
p9604
S'58.56'
p9605
S'26803800'
p9606
S'56.62'
p9607
tp9608
sS'2006-06-05'
p9609
(S'61.15'
p9610
S'61.15'
p9611
S'59.97'
p9612
S'60.00'
p9613
S'21635200'
p9614
S'58.01'
p9615
tp9616
sS'2006-06-02'
p9617
(S'62.99'
p9618
S'63.10'
p9619
S'60.88'
p9620
S'61.66'
p9621
S'24492400'
p9622
S'59.62'
p9623
tp9624
sS'2004-08-31'
p9625
(S'34.07'
p9626
S'34.95'
p9627
S'34.00'
p9628
S'34.49'
p9629
S'13448600'
p9630
S'16.67'
p9631
tp9632
sS'2006-11-10'
p9633
(S'83.55'
p9634
S'83.60'
p9635
S'82.50'
p9636
S'83.12'
p9637
S'13352300'
p9638
S'80.37'
p9639
tp9640
sS'2007-07-10'
p9641
(S'128.88'
p9642
S'134.50'
p9643
S'128.81'
p9644
S'132.35'
p9645
S'44821700'
p9646
S'127.97'
p9647
tp9648
sS'2005-01-31'
p9649
(S'74.58'
p9650
S'77.89'
p9651
S'74.51'
p9652
S'76.90'
p9653
S'60039200'
p9654
S'37.18'
p9655
tp9656
sS'2006-11-13'
p9657
(S'83.22'
p9658
S'84.45'
p9659
S'82.64'
p9660
S'84.35'
p9661
S'16095500'
p9662
S'81.56'
p9663
tp9664
sS'2005-04-11'
p9665
(S'44.15'
p9666
S'44.25'
p9667
S'41.91'
p9668
S'41.92'
p9669
S'29345100'
p9670
S'40.53'
p9671
tp9672
sS'2008-03-10'
p9673
(S'121.98'
p9674
S'123.46'
p9675
S'119.37'
p9676
S'119.69'
p9677
S'35699600'
p9678
S'115.73'
p9679
tp9680
sS'2007-07-16'
p9681
(S'138.39'
p9682
S'139.98'
p9683
S'137.50'
p9684
S'138.10'
p9685
S'33432600'
p9686
S'133.53'
p9687
tp9688
sS'2007-06-07'
p9689
(S'124.99'
p9690
S'127.61'
p9691
S'123.19'
p9692
S'124.07'
p9693
S'68395700'
p9694
S'119.96'
p9695
tp9696
sS'2004-08-30'
p9697
(S'34.00'
p9698
S'34.72'
p9699
S'33.96'
p9700
S'34.12'
p9701
S'7790800'
p9702
S'16.50'
p9703
tp9704
sS'2005-02-17'
p9705
(S'90.65'
p9706
S'90.88'
p9707
S'87.45'
p9708
S'87.81'
p9709
S'54231200'
p9710
S'42.45'
p9711
tp9712
sS'2007-06-06'
p9713
(S'122.30'
p9714
S'124.05'
p9715
S'121.95'
p9716
S'123.64'
p9717
S'39722900'
p9718
S'119.55'
p9719
tp9720
sS'2006-04-26'
p9721
(S'66.65'
p9722
S'68.28'
p9723
S'66.40'
p9724
S'68.15'
p9725
S'25388800'
p9726
S'65.89'
p9727
tp9728
sS'2007-07-23'
p9729
(S'143.31'
p9730
S'145.22'
p9731
S'140.93'
p9732
S'143.70'
p9733
S'37017500'
p9734
S'138.94'
p9735
tp9736
sS'2007-07-20'
p9737
(S'141.65'
p9738
S'144.18'
p9739
S'140.00'
p9740
S'143.75'
p9741
S'41706200'
p9742
S'138.99'
p9743
tp9744
sS'2007-07-26'
p9745
(S'145.91'
p9746
S'148.50'
p9747
S'136.96'
p9748
S'146.00'
p9749
S'78093900'
p9750
S'141.17'
p9751
tp9752
sS'2007-07-27'
p9753
(S'146.19'
p9754
S'148.92'
p9755
S'143.78'
p9756
S'143.85'
p9757
S'41467800'
p9758
S'139.09'
p9759
tp9760
sS'2007-07-24'
p9761
(S'138.88'
p9762
S'141.00'
p9763
S'134.15'
p9764
S'134.89'
p9765
S'64117600'
p9766
S'130.43'
p9767
tp9768
sS'2007-07-25'
p9769
(S'137.35'
p9770
S'138.36'
p9771
S'135.00'
p9772
S'137.26'
p9773
S'53435100'
p9774
S'132.72'
p9775
tp9776
sS'2005-01-03'
p9777
(S'64.78'
p9778
S'65.11'
p9779
S'62.60'
p9780
S'63.29'
p9781
S'24714000'
p9782
S'30.60'
p9783
tp9784
sS'2007-07-17'
p9785
(S'138.30'
p9786
S'139.60'
p9787
S'137.50'
p9788
S'138.91'
p9789
S'25355700'
p9790
S'134.31'
p9791
tp9792
sS'2005-08-25'
p9793
(S'46.12'
p9794
S'46.49'
p9795
S'45.81'
p9796
S'46.06'
p9797
S'9866200'
p9798
S'44.54'
p9799
tp9800
sS'2005-10-07'
p9801
(S'51.72'
p9802
S'51.93'
p9803
S'50.55'
p9804
S'51.30'
p9805
S'24210100'
p9806
S'49.60'
p9807
tp9808
sS'2005-08-24'
p9809
(S'45.60'
p9810
S'47.12'
p9811
S'45.59'
p9812
S'45.77'
p9813
S'20431100'
p9814
S'44.26'
p9815
tp9816
s.